# SymbolsHelper-Confirmed: 5.15.4 amd64
libQt5Quick.so.5 libqt5quick5 #MINVER# | libqt5quick5-gles #MINVER#
| libqt5quick5 #MINVER# | libqt5quick5-gles #MINVER#, qtdeclarative-abi-5-15-8
* Build-Depends-Packages: qtdeclarative5-dev, qtdeclarative5-private-dev
 Qt_5.0@Qt_5.0 5.6.0~beta
 Qt_5.10@Qt_5.10 5.10.0
 Qt_5.11@Qt_5.11 5.11.0
 Qt_5.12@Qt_5.12 5.12.0
 Qt_5.13@Qt_5.13 5.14.1
 Qt_5.14@Qt_5.14 5.14.1
 Qt_5.15@Qt_5.15 5.15.1
 Qt_5.1@Qt_5.1 5.6.0~beta
 Qt_5.2@Qt_5.2 5.6.0~beta
 Qt_5.3@Qt_5.3 5.6.0~beta
 Qt_5.4@Qt_5.4 5.6.0~beta
 Qt_5.5@Qt_5.5 5.6.0~beta
 Qt_5.6@Qt_5.6 5.6.0~beta
 Qt_5.7@Qt_5.7 5.7.0
 Qt_5.8@Qt_5.8 5.9.0~beta
 Qt_5.9@Qt_5.9 5.9.0~beta
 Qt_5@Qt_5 5.6.0~beta
 (symver)Qt_5_PRIVATE_API 0 1
 _Z20qt_color_from_stringRKN3QV45ValueE@Qt_5 5.10.0
 _Z23qsgnode_set_descriptionP7QSGNodeRK7QString@Qt_5 5.4.0
 _Z23qtPositionAttributeNamev@Qt_5 5.12.5
 _Z23qtTexCoordAttributeNamev@Qt_5 5.12.5
 _Z26qml_register_types_QtQuickv@Qt_5 5.15.1
 _Z33qt_quick_shortcut_context_matcherv@Qt_5 5.9.0~beta
 _Z37qt_quick_set_shortcut_context_matcherPFbP7QObjectN2Qt15ShortcutContextEE@Qt_5 5.9.0~beta
 _ZN10QQuickItem10classBeginEv@Qt_5 5.0.2
 _ZN10QQuickItem10itemChangeENS_10ItemChangeERKNS_14ItemChangeDataE@Qt_5 5.0.2
 _ZN10QQuickItem10resetWidthEv@Qt_5 5.0.2
 _ZN10QQuickItem10setEnabledEb@Qt_5 5.0.2
 _ZN10QQuickItem10setOpacityEd@Qt_5 5.2.0
 _ZN10QQuickItem10setVisibleEb@Qt_5 5.0.2
 _ZN10QQuickItem10stackAfterEPKS_@Qt_5 5.0.2
 _ZN10QQuickItem10touchEventEP11QTouchEvent@Qt_5 5.0.2
 _ZN10QQuickItem10wheelEventEP11QWheelEvent@Qt_5 5.0.2
 _ZN10QQuickItem11clipChangedEb@Qt_5 5.0.2
 _ZN10QQuickItem11grabToImageERK5QSize@Qt_5 5.4.0
 _ZN10QQuickItem11grabToImageERK8QJSValueRK5QSize@Qt_5 5.4.0
 _ZN10QQuickItem11qt_metacallEN11QMetaObject4CallEiPPv@Qt_5 5.0.2
 _ZN10QQuickItem11qt_metacastEPKc@Qt_5 5.0.2
 _ZN10QQuickItem11resetHeightEv@Qt_5 5.0.2
 _ZN10QQuickItem11setPositionERK7QPointF@Qt_5 5.0.2
 _ZN10QQuickItem11setRotationEd@Qt_5 5.2.0
 _ZN10QQuickItem11stackBeforeEPKS_@Qt_5 5.0.2
 _ZN10QQuickItem11ungrabMouseEv@Qt_5 5.0.2
 _ZN10QQuickItem11unsetCursorEv@Qt_5 5.0.2
 _ZN10QQuickItem12childrenRectEv@Qt_5 5.0.2
 _ZN10QQuickItem12focusChangedEb@Qt_5 5.0.2
 _ZN10QQuickItem12focusInEventEP11QFocusEvent@Qt_5 5.0.2
 _ZN10QQuickItem12scaleChangedEv@Qt_5 5.0.2
 _ZN10QQuickItem12stateChangedERK7QString@Qt_5 5.0.2
 _ZN10QQuickItem12updatePolishEv@Qt_5 5.0.2
 _ZN10QQuickItem12widthChangedEv@Qt_5 5.0.2
 _ZN10QQuickItem13dragMoveEventEP14QDragMoveEvent@Qt_5 5.0.2
 _ZN10QQuickItem13focusOutEventEP11QFocusEvent@Qt_5 5.0.2
 _ZN10QQuickItem13heightChangedEv@Qt_5 5.0.2
 _ZN10QQuickItem13keyPressEventEP9QKeyEvent@Qt_5 5.0.2
 _ZN10QQuickItem13parentChangedEPS_@Qt_5 5.0.2
 _ZN10QQuickItem13setParentItemEPS_@Qt_5 5.0.2
 _ZN10QQuickItem13smoothChangedEb@Qt_5 5.0.2
 _ZN10QQuickItem13windowChangedEP12QQuickWindow@Qt_5 5.1.0
 _ZN10QQuickItem14dragEnterEventEP15QDragEnterEvent@Qt_5 5.0.2
 _ZN10QQuickItem14dragLeaveEventEP15QDragLeaveEvent@Qt_5 5.0.2
 _ZN10QQuickItem14enabledChangedEv@Qt_5 5.0.2
 _ZN10QQuickItem14hoverMoveEventEP11QHoverEvent@Qt_5 5.0.2
 _ZN10QQuickItem14mouseMoveEventEP11QMouseEvent@Qt_5 5.0.2
 _ZN10QQuickItem14opacityChangedEv@Qt_5 5.0.2
 _ZN10QQuickItem14visibleChangedEv@Qt_5 5.0.2
 _ZN10QQuickItem15childrenChangedEv@Qt_5 5.0.2
 _ZN10QQuickItem15geometryChangedERK6QRectFS2_@Qt_5 5.0.2
 _ZN10QQuickItem15grabTouchPointsERK7QVectorIiE@Qt_5 5.0.2
 _ZN10QQuickItem15hoverEnterEventEP11QHoverEvent@Qt_5 5.0.2
 _ZN10QQuickItem15hoverLeaveEventEP11QHoverEvent@Qt_5 5.0.2
 _ZN10QQuickItem15keyReleaseEventEP9QKeyEvent@Qt_5 5.0.2
 _ZN10QQuickItem15mousePressEventEP11QMouseEvent@Qt_5 5.0.2
 _ZN10QQuickItem15rotationChangedEv@Qt_5 5.0.2
 _ZN10QQuickItem15setAntialiasingEb@Qt_5 5.0.2
 _ZN10QQuickItem15setImplicitSizeEdd@Qt_5 5.2.0
 _ZN10QQuickItem15updatePaintNodeEP7QSGNodePNS_19UpdatePaintNodeDataE@Qt_5 5.0.2
 _ZN10QQuickItem16forceActiveFocusEN2Qt11FocusReasonE@Qt_5 5.1.0
 _ZN10QQuickItem16forceActiveFocusEv@Qt_5 5.0.2
 _ZN10QQuickItem16inputMethodEventEP17QInputMethodEvent@Qt_5 5.0.2
 _ZN10QQuickItem16mouseUngrabEventEv@Qt_5 5.0.2
 _ZN10QQuickItem16releaseResourcesEv@Qt_5 5.0.2
 _ZN10QQuickItem16setImplicitWidthEd@Qt_5 5.2.0
 _ZN10QQuickItem16setKeepMouseGrabEb@Qt_5 5.0.2
 _ZN10QQuickItem16setKeepTouchGrabEb@Qt_5 5.0.2
 _ZN10QQuickItem16staticMetaObjectE@Qt_5 5.0.2
 _ZN10QQuickItem16touchUngrabEventEv@Qt_5 5.0.2
 _ZN10QQuickItem17componentCompleteEv@Qt_5 5.0.2
 _ZN10QQuickItem17mouseReleaseEventEP11QMouseEvent@Qt_5 5.0.2
 _ZN10QQuickItem17resetAntialiasingEv@Qt_5 5.3.0
 _ZN10QQuickItem17setBaselineOffsetEd@Qt_5 5.2.0
 _ZN10QQuickItem17setImplicitHeightEd@Qt_5 5.2.0
 _ZN10QQuickItem17ungrabTouchPointsEv@Qt_5 5.0.2
 _ZN10QQuickItem17updateInputMethodE6QFlagsIN2Qt16InputMethodQueryEE@Qt_5 5.0.2
 _ZN10QQuickItem18activeFocusChangedEb@Qt_5 5.0.2
 _ZN10QQuickItem18setContainmentMaskEP7QObject@Qt_5 5.11.0
 _ZN10QQuickItem18setTransformOriginENS_15TransformOriginE@Qt_5 5.0.2
 _ZN10QQuickItem19UpdatePaintNodeDataC1Ev@Qt_5 5.0.2
 _ZN10QQuickItem19UpdatePaintNodeDataC2Ev@Qt_5 5.0.2
 _ZN10QQuickItem19antialiasingChangedEb@Qt_5 5.0.2
 _ZN10QQuickItem19childrenRectChangedERK6QRectF@Qt_5 5.0.2
 _ZN10QQuickItem19setActiveFocusOnTabEb@Qt_5 5.1.0
 _ZN10QQuickItem20implicitWidthChangedEv@Qt_5 5.0.2
 _ZN10QQuickItem20nextItemInFocusChainEb@Qt_5 5.1.0
 _ZN10QQuickItem20setAcceptHoverEventsEb@Qt_5 5.0.2
 _ZN10QQuickItem20setAcceptTouchEventsEb@Qt_5 5.10.0
 _ZN10QQuickItem21baselineOffsetChangedEd@Qt_5 5.2.0
 _ZN10QQuickItem21childMouseEventFilterEPS_P6QEvent@Qt_5 5.0.2
 _ZN10QQuickItem21implicitHeightChangedEv@Qt_5 5.0.2
 _ZN10QQuickItem21mouseDoubleClickEventEP11QMouseEvent@Qt_5 5.0.2
 _ZN10QQuickItem21windowDeactivateEventEv@Qt_5 5.0.2
 _ZN10QQuickItem22containmentMaskChangedEv@Qt_5 5.11.0
 _ZN10QQuickItem22transformOriginChangedENS_15TransformOriginE@Qt_5 5.0.2
 _ZN10QQuickItem22visibleChildrenChangedEv@Qt_5 5.0.2
 _ZN10QQuickItem23activeFocusOnTabChangedEb@Qt_5 5.1.0
 _ZN10QQuickItem23setAcceptedMouseButtonsE6QFlagsIN2Qt11MouseButtonEE@Qt_5 5.0.2
 _ZN10QQuickItem23setTransformOriginPointERK7QPointF@Qt_5 5.0.2
 _ZN10QQuickItem26setFiltersChildMouseEventsEb@Qt_5 5.0.2
 _ZN10QQuickItem4setXEd@Qt_5 5.2.0
 _ZN10QQuickItem4setYEd@Qt_5 5.2.0
 _ZN10QQuickItem4setZEd@Qt_5 5.2.0
 _ZN10QQuickItem5eventEP6QEvent@Qt_5 5.0.2
 _ZN10QQuickItem6polishEv@Qt_5 5.0.2
 _ZN10QQuickItem6updateEv@Qt_5 5.0.2
 _ZN10QQuickItem7setClipEb@Qt_5 5.0.2
 _ZN10QQuickItem7setFlagENS_4FlagEb@Qt_5 5.0.2
 _ZN10QQuickItem7setSizeERK6QSizeF@Qt_5 5.0.2
 _ZN10QQuickItem8setFlagsE6QFlagsINS_4FlagEE@Qt_5 5.0.2
 _ZN10QQuickItem8setFocusEb@Qt_5 5.0.2
 _ZN10QQuickItem8setFocusEbN2Qt11FocusReasonE@Qt_5 5.1.0
 _ZN10QQuickItem8setScaleEd@Qt_5 5.2.0
 _ZN10QQuickItem8setStateERK7QString@Qt_5 5.0.2
 _ZN10QQuickItem8setWidthEd@Qt_5 5.2.0
 _ZN10QQuickItem8xChangedEv@Qt_5 5.0.2
 _ZN10QQuickItem8yChangedEv@Qt_5 5.0.2
 _ZN10QQuickItem8zChangedEv@Qt_5 5.0.2
 _ZN10QQuickItem9dropEventEP10QDropEvent@Qt_5 5.0.2
 _ZN10QQuickItem9grabMouseEv@Qt_5 5.0.2
 _ZN10QQuickItem9setCursorERK7QCursor@Qt_5 5.0.2
 _ZN10QQuickItem9setHeightEd@Qt_5 5.2.0
 _ZN10QQuickItem9setSmoothEb@Qt_5 5.0.2
 _ZN10QQuickItem9transformEv@Qt_5 5.0.2
 _ZN10QQuickItemC1EPS_@Qt_5 5.0.2
 _ZN10QQuickItemC2EPS_@Qt_5 5.0.2
 _ZN10QQuickItemD0Ev@Qt_5 5.0.2
 _ZN10QQuickItemD1Ev@Qt_5 5.0.2
 _ZN10QQuickItemD2Ev@Qt_5 5.0.2
 _ZN10QQuickView10setContentERK4QUrlP13QQmlComponentP7QObject@Qt_5 5.0.2
 _ZN10QQuickView10timerEventEP11QTimerEvent@Qt_5 5.0.2
 _ZN10QQuickView11qt_metacallEN11QMetaObject4CallEiPPv@Qt_5 5.0.2
 _ZN10QQuickView11qt_metacastEPKc@Qt_5 5.0.2
 _ZN10QQuickView11resizeEventEP12QResizeEvent@Qt_5 5.0.2
 _ZN10QQuickView13keyPressEventEP9QKeyEvent@Qt_5 5.0.2
 _ZN10QQuickView13setResizeModeENS_10ResizeModeE@Qt_5 5.0.2
 _ZN10QQuickView13statusChangedENS_6StatusE@Qt_5 5.0.2
 _ZN10QQuickView14mouseMoveEventEP11QMouseEvent@Qt_5 5.0.2
 _ZN10QQuickView15continueExecuteEv@Qt_5 5.0.2
 _ZN10QQuickView15keyReleaseEventEP9QKeyEvent@Qt_5 5.0.2
 _ZN10QQuickView15mousePressEventEP11QMouseEvent@Qt_5 5.0.2
 _ZN10QQuickView16staticMetaObjectE@Qt_5 5.0.2
 _ZN10QQuickView17mouseReleaseEventEP11QMouseEvent@Qt_5 5.0.2
 _ZN10QQuickView20setInitialPropertiesERK4QMapI7QString8QVariantE@Qt_5 5.14.1
 _ZN10QQuickView9setSourceERK4QUrl@Qt_5 5.0.2
 _ZN10QQuickViewC1EP10QQmlEngineP7QWindow@Qt_5 5.0.2
 _ZN10QQuickViewC1EP7QWindow@Qt_5 5.0.2
 _ZN10QQuickViewC1ERK4QUrlP19QQuickRenderControl@Qt_5 5.11.0
 _ZN10QQuickViewC1ERK4QUrlP7QWindow@Qt_5 5.0.2
 _ZN10QQuickViewC2EP10QQmlEngineP7QWindow@Qt_5 5.0.2
 _ZN10QQuickViewC2EP7QWindow@Qt_5 5.0.2
 _ZN10QQuickViewC2ERK4QUrlP19QQuickRenderControl@Qt_5 5.11.0
 _ZN10QQuickViewC2ERK4QUrlP7QWindow@Qt_5 5.0.2
 _ZN10QQuickViewD0Ev@Qt_5 5.0.2
 _ZN10QQuickViewD1Ev@Qt_5 5.0.2
 _ZN10QQuickViewD2Ev@Qt_5 5.0.2
 _ZN10QSGTexture11qt_metacallEN11QMetaObject4CallEiPPv@Qt_5 5.0.2
 _ZN10QSGTexture11qt_metacastEPKc@Qt_5 5.0.2
 _ZN10QSGTexture12setFilteringENS_9FilteringE@Qt_5 5.0.2
 _ZN10QSGTexture16staticMetaObjectE@Qt_5 5.0.2
 _ZN10QSGTexture16updateRhiTextureEP4QRhiP23QRhiResourceUpdateBatch@Qt_5 5.14.1
 _ZN10QSGTexture17updateBindOptionsEb@Qt_5 5.0.2
 _ZN10QSGTexture18setAnisotropyLevelENS_15AnisotropyLevelE@Qt_5 5.9.0~beta
 _ZN10QSGTexture18setMipmapFilteringENS_9FilteringE@Qt_5 5.0.2
 _ZN10QSGTexture19setVerticalWrapModeENS_8WrapModeE@Qt_5 5.0.2
 _ZN10QSGTexture21setHorizontalWrapModeENS_8WrapModeE@Qt_5 5.0.2
 _ZN10QSGTexture26setWorkResourceUpdateBatchEP23QRhiResourceUpdateBatch@Qt_5 5.14.1
 _ZN10QSGTextureC1Ev@Qt_5 5.0.2
 _ZN10QSGTextureC2Ev@Qt_5 5.0.2
 _ZN10QSGTextureD0Ev@Qt_5 5.0.2
 _ZN10QSGTextureD1Ev@Qt_5 5.0.2
 _ZN10QSGTextureD2Ev@Qt_5 5.0.2
 _ZN11QSGClipNode11setClipRectERK6QRectF@Qt_5 5.0.2
 _ZN11QSGClipNode16setIsRectangularEb@Qt_5 5.0.2
 _ZN11QSGClipNodeC1Ev@Qt_5 5.0.2
 _ZN11QSGClipNodeC2Ev@Qt_5 5.0.2
 _ZN11QSGClipNodeD0Ev@Qt_5 5.0.2
 _ZN11QSGClipNodeD1Ev@Qt_5 5.0.2
 _ZN11QSGClipNodeD2Ev@Qt_5 5.0.2
 _ZN11QSGGeometry12setLineWidthEf@Qt_5 5.0.2
 _ZN11QSGGeometry14setDrawingModeEj@Qt_5 5.0.2
 _ZN11QSGGeometry18markIndexDataDirtyEv@Qt_5 5.0.2
 _ZN11QSGGeometry18updateRectGeometryEPS_RK6QRectF@Qt_5 5.0.2
 _ZN11QSGGeometry19markVertexDataDirtyEv@Qt_5 5.0.2
 _ZN11QSGGeometry19setIndexDataPatternENS_11DataPatternE@Qt_5 5.0.2
 _ZN11QSGGeometry20setVertexDataPatternENS_11DataPatternE@Qt_5 5.0.2
 _ZN11QSGGeometry25defaultAttributes_Point2DEv@Qt_5 5.0.2
 _ZN11QSGGeometry25updateColoredRectGeometryEPS_RK6QRectF@Qt_5 5.9.0~beta
 _ZN11QSGGeometry26updateTexturedRectGeometryEPS_RK6QRectFS3_@Qt_5 5.0.2
 _ZN11QSGGeometry32defaultAttributes_ColoredPoint2DEv@Qt_5 5.0.2
 _ZN11QSGGeometry33defaultAttributes_TexturedPoint2DEv@Qt_5 5.0.2
 _ZN11QSGGeometry8allocateEii@Qt_5 5.0.2
 _ZN11QSGGeometry9Attribute23createWithAttributeTypeEiiiNS_13AttributeTypeE@Qt_5 5.9.0~beta
 _ZN11QSGGeometry9Attribute6createEiiib@Qt_5 5.0.2
 _ZN11QSGGeometry9indexDataEv@Qt_5 5.0.2
 _ZN11QSGGeometryC1ERKNS_12AttributeSetEiii@Qt_5 5.0.2
 _ZN11QSGGeometryC2ERKNS_12AttributeSetEiii@Qt_5 5.0.2
 _ZN11QSGGeometryD0Ev@Qt_5 5.0.2
 _ZN11QSGGeometryD1Ev@Qt_5 5.0.2
 _ZN11QSGGeometryD2Ev@Qt_5 5.0.2
 _ZN11QSGMaterial7setFlagE6QFlagsINS_4FlagEEb@Qt_5 5.0.2
 _ZN11QSGMaterialC1Ev@Qt_5 5.0.2
 _ZN11QSGMaterialC2Ev@Qt_5 5.0.2
 _ZN11QSGMaterialD0Ev@Qt_5 5.0.2
 _ZN11QSGMaterialD1Ev@Qt_5 5.0.2
 _ZN11QSGMaterialD2Ev@Qt_5 5.0.2
 _ZN11QSGRootNode16notifyNodeChangeEP7QSGNode6QFlagsINS0_13DirtyStateBitEE@Qt_5 5.0.2
 _ZN11QSGRootNodeC1Ev@Qt_5 5.0.2
 _ZN11QSGRootNodeC2Ev@Qt_5 5.0.2
 _ZN11QSGRootNodeD0Ev@Qt_5 5.0.2
 _ZN11QSGRootNodeD1Ev@Qt_5 5.0.2
 _ZN11QSGRootNodeD2Ev@Qt_5 5.0.2
 _ZN12QQuickWindow10grabWindowEv@Qt_5 5.0.2
 _ZN12QQuickWindow10wheelEventEP11QWheelEvent@Qt_5 5.0.2
 _ZN12QQuickWindow11exposeEventEP12QExposeEvent@Qt_5 5.0.2
 _ZN12QQuickWindow11maybeUpdateEv@Qt_5 5.0.2
 _ZN12QQuickWindow11qt_metacallEN11QMetaObject4CallEiPPv@Qt_5 5.0.2
 _ZN12QQuickWindow11qt_metacastEPKc@Qt_5 5.0.2
 _ZN12QQuickWindow11resizeEventEP12QResizeEvent@Qt_5 5.0.2
 _ZN12QQuickWindow11tabletEventEP12QTabletEvent@Qt_5 5.15.1
 _ZN12QQuickWindow12colorChangedERK6QColor@Qt_5 5.0.2
 _ZN12QQuickWindow12focusInEventEP11QFocusEvent@Qt_5 5.0.2
 _ZN12QQuickWindow12frameSwappedEv@Qt_5 5.0.2
 _ZN12QQuickWindow13focusOutEventEP11QFocusEvent@Qt_5 5.0.2
 _ZN12QQuickWindow13keyPressEventEP9QKeyEvent@Qt_5 5.0.2
 _ZN12QQuickWindow14afterAnimatingEv@Qt_5 5.3.0
 _ZN12QQuickWindow14afterRenderingEv@Qt_5 5.0.2
 _ZN12QQuickWindow14mouseMoveEventEP11QMouseEvent@Qt_5 5.0.2
 _ZN12QQuickWindow14textRenderTypeEv@Qt_5 5.10.0
 _ZN12QQuickWindow15beforeRenderingEv@Qt_5 5.0.2
 _ZN12QQuickWindow15keyReleaseEventEP9QKeyEvent@Qt_5 5.0.2
 _ZN12QQuickWindow15mousePressEventEP11QMouseEvent@Qt_5 5.0.2
 _ZN12QQuickWindow15sceneGraphErrorENS_15SceneGraphErrorERK7QString@Qt_5 5.3.0
 _ZN12QQuickWindow15setRenderTargetEP24QOpenGLFramebufferObject@Qt_5 5.0.2
 _ZN12QQuickWindow15setRenderTargetEjRK5QSize@Qt_5 5.0.2
 _ZN12QQuickWindow16releaseResourcesEv@Qt_5 5.0.2
 _ZN12QQuickWindow16resetOpenGLStateEv@Qt_5 5.2.0~beta1
 _ZN12QQuickWindow16runJobsAfterSwapEv@Qt_5 5.4.0
 _ZN12QQuickWindow16staticMetaObjectE@Qt_5 5.0.2
 _ZN12QQuickWindow17cleanupSceneGraphEv@Qt_5 5.0.2
 _ZN12QQuickWindow17graphicsStateInfoEv@Qt_5 5.14.1
 _ZN12QQuickWindow17mouseReleaseEventEP11QMouseEvent@Qt_5 5.0.2
 _ZN12QQuickWindow17sceneGraphBackendEv@Qt_5 5.9.0
 _ZN12QQuickWindow17scheduleRenderJobEP9QRunnableNS_11RenderStageE@Qt_5 5.4.0
 _ZN12QQuickWindow17setTextRenderTypeENS_14TextRenderTypeE@Qt_5 5.10.0
 _ZN12QQuickWindow18afterSynchronizingEv@Qt_5 5.3.0
 _ZN12QQuickWindow18physicalDpiChangedEv@Qt_5 5.6.0~rc
 _ZN12QQuickWindow19beforeSynchronizingEv@Qt_5 5.0.2
 _ZN12QQuickWindow19endExternalCommandsEv@Qt_5 5.14.1
 _ZN12QQuickWindow19handleScreenChangedEP7QScreen@Qt_5 5.6.0~rc
 _ZN12QQuickWindow20openglContextCreatedEP14QOpenGLContext@Qt_5 5.3.0
 _ZN12QQuickWindow20setSceneGraphBackendEN20QSGRendererInterface11GraphicsApiE@Qt_5 5.9.0~beta
 _ZN12QQuickWindow20setSceneGraphBackendERK7QString@Qt_5 5.9.0~beta
 _ZN12QQuickWindow21beginExternalCommandsEv@Qt_5 5.14.1
 _ZN12QQuickWindow21hasDefaultAlphaBufferEv@Qt_5 5.1.0
 _ZN12QQuickWindow21mouseDoubleClickEventEP11QMouseEvent@Qt_5 5.0.2
 _ZN12QQuickWindow21sceneGraphAboutToStopEv@Qt_5 5.3.0
 _ZN12QQuickWindow21sceneGraphInitializedEv@Qt_5 5.0.2
 _ZN12QQuickWindow21sceneGraphInvalidatedEv@Qt_5 5.0.2
 _ZN12QQuickWindow21setDefaultAlphaBufferEb@Qt_5 5.1.0
 _ZN12QQuickWindow22activeFocusItemChangedEv@Qt_5 5.1.0
 _ZN12QQuickWindow23setClearBeforeRenderingEb@Qt_5 5.0.2
 _ZN12QQuickWindow23setPersistentSceneGraphEb@Qt_5 5.0.2
 _ZN12QQuickWindow24afterRenderPassRecordingEv@Qt_5 5.14.1
 _ZN12QQuickWindow25beforeRenderPassRecordingEv@Qt_5 5.14.1
 _ZN12QQuickWindow25setTransientParent_helperEPS_@Qt_5 5.1.0
 _ZN12QQuickWindow26setPersistentOpenGLContextEb@Qt_5 5.0.2
 _ZN12QQuickWindow29handleApplicationStateChangedEN2Qt16ApplicationStateE@Qt_5 5.10.1
 _ZN12QQuickWindow5eventEP6QEvent@Qt_5 5.0.2
 _ZN12QQuickWindow6updateEv@Qt_5 5.0.2
 _ZN12QQuickWindow8setColorERK6QColor@Qt_5 5.0.2
 _ZN12QQuickWindow9hideEventEP10QHideEvent@Qt_5 5.0.2
 _ZN12QQuickWindow9sendEventEP10QQuickItemP6QEvent@Qt_5 5.0.2
 _ZN12QQuickWindow9showEventEP10QShowEvent@Qt_5 5.0.2
 _ZN12QQuickWindowC1EP19QQuickRenderControl@Qt_5 5.3.0
 _ZN12QQuickWindowC1EP7QWindow@Qt_5 5.0.2
 _ZN12QQuickWindowC2EP19QQuickRenderControl@Qt_5 5.3.0
 _ZN12QQuickWindowC2EP7QWindow@Qt_5 5.0.2
 _ZN12QQuickWindowD0Ev@Qt_5 5.0.2
 _ZN12QQuickWindowD1Ev@Qt_5 5.0.2
 _ZN12QQuickWindowD2Ev@Qt_5 5.0.2
 _ZN12QSGImageNode15rebuildGeometryEP11QSGGeometryP10QSGTextureRK6QRectFS4_6QFlagsINS_31TextureCoordinatesTransformFlagEE@Qt_5 5.9.0~beta
 _ZN13QSGRenderNode11RenderStateD0Ev@Qt_5 5.9.0~beta
 _ZN13QSGRenderNode11RenderStateD1Ev@Qt_5 5.9.0~beta
 _ZN13QSGRenderNode11RenderStateD2Ev@Qt_5 5.9.0~beta
 _ZN13QSGRenderNode16releaseResourcesEv@Qt_5 5.9.0~beta
 _ZN13QSGRenderNodeC1Ev@Qt_5 5.9.0~beta
 _ZN13QSGRenderNodeC2Ev@Qt_5 5.9.0~beta
 _ZN13QSGRenderNodeD0Ev@Qt_5 5.9.0~beta
 _ZN13QSGRenderNodeD1Ev@Qt_5 5.9.0~beta
 _ZN13QSGRenderNodeD2Ev@Qt_5 5.9.0~beta
 _ZN14QSGNodeVisitor13visitChildrenEP7QSGNode@Qt_5 5.0.2
 _ZN14QSGNodeVisitor9visitNodeEP7QSGNode@Qt_5 5.0.2
 _ZN14QSGNodeVisitorD0Ev@Qt_5 5.0.2
 _ZN14QSGNodeVisitorD1Ev@Qt_5 5.0.2
 _ZN14QSGNodeVisitorD2Ev@Qt_5 5.0.2
 _ZN14QSGOpacityNode10setOpacityEd@Qt_5 5.2.0
 _ZN14QSGOpacityNode18setCombinedOpacityEd@Qt_5 5.2.0
 _ZN14QSGOpacityNodeC1Ev@Qt_5 5.0.2
 _ZN14QSGOpacityNodeC2Ev@Qt_5 5.0.2
 _ZN14QSGOpacityNodeD0Ev@Qt_5 5.0.2
 _ZN14QSGOpacityNodeD1Ev@Qt_5 5.0.2
 _ZN14QSGOpacityNodeD2Ev@Qt_5 5.0.2
 _ZN15QQuickSvgParser7pathArcER12QPainterPathdddiidddd@Qt_5 5.10.0
 _ZN15QQuickTransform11qt_metacallEN11QMetaObject4CallEiPPv@Qt_5 5.3.0
 _ZN15QQuickTransform11qt_metacastEPKc@Qt_5 5.3.0
 _ZN15QQuickTransform12appendToItemEP10QQuickItem@Qt_5 5.3.0
 _ZN15QQuickTransform13prependToItemEP10QQuickItem@Qt_5 5.3.0
 _ZN15QQuickTransform16staticMetaObjectE@Qt_5 5.3.0
 _ZN15QQuickTransform6updateEv@Qt_5 5.3.0
 _ZN15QQuickTransformC1EP7QObject@Qt_5 5.3.0
 _ZN15QQuickTransformC1ER22QQuickTransformPrivateP7QObject@Qt_5 5.3.0
 _ZN15QQuickTransformC2EP7QObject@Qt_5 5.3.0
 _ZN15QQuickTransformC2ER22QQuickTransformPrivateP7QObject@Qt_5 5.3.0
 _ZN15QQuickTransformD0Ev@Qt_5 5.3.0
 _ZN15QQuickTransformD1Ev@Qt_5 5.3.0
 _ZN15QQuickTransformD2Ev@Qt_5 5.3.0
 _ZN15QSGGeometryNode11setMaterialEP11QSGMaterial@Qt_5 5.0.2
 _ZN15QSGGeometryNode14setRenderOrderEi@Qt_5 5.0.2
 _ZN15QSGGeometryNode17setOpaqueMaterialEP11QSGMaterial@Qt_5 5.0.2
 _ZN15QSGGeometryNode19setInheritedOpacityEd@Qt_5 5.2.0
 _ZN15QSGGeometryNodeC1ER22QSGGeometryNodePrivate@Qt_5 5.2.0~beta1
 _ZN15QSGGeometryNodeC1Ev@Qt_5 5.0.2
 _ZN15QSGGeometryNodeC2ER22QSGGeometryNodePrivate@Qt_5 5.2.0~beta1
 _ZN15QSGGeometryNodeC2Ev@Qt_5 5.0.2
 _ZN15QSGGeometryNodeD0Ev@Qt_5 5.0.2
 _ZN15QSGGeometryNodeD1Ev@Qt_5 5.0.2
 _ZN15QSGGeometryNodeD2Ev@Qt_5 5.0.2
 _ZN16QSGNinePatchNode15rebuildGeometryEP10QSGTextureP11QSGGeometryRK9QVector4DRK6QRectFd@Qt_5 5.9.0~beta
 _ZN16QSGTransformNode17setCombinedMatrixERK10QMatrix4x4@Qt_5 5.0.2
 _ZN16QSGTransformNode9setMatrixERK10QMatrix4x4@Qt_5 5.0.2
 _ZN16QSGTransformNodeC1Ev@Qt_5 5.0.2
 _ZN16QSGTransformNodeC2Ev@Qt_5 5.0.2
 _ZN16QSGTransformNodeD0Ev@Qt_5 5.0.2
 _ZN16QSGTransformNodeD1Ev@Qt_5 5.0.2
 _ZN16QSGTransformNodeD2Ev@Qt_5 5.0.2
 _ZN17QQuickPaintedItem10itemChangeEN10QQuickItem10ItemChangeERKNS0_14ItemChangeDataE@Qt_5 5.6.1
 _ZN17QQuickPaintedItem11qt_metacallEN11QMetaObject4CallEiPPv@Qt_5 5.0.2
 _ZN17QQuickPaintedItem11qt_metacastEPKc@Qt_5 5.0.2
 _ZN17QQuickPaintedItem12setFillColorERK6QColor@Qt_5 5.0.2
 _ZN17QQuickPaintedItem14setTextureSizeERK5QSize@Qt_5 5.6.0~beta
 _ZN17QQuickPaintedItem15setAntialiasingEb@Qt_5 5.0.2
 _ZN17QQuickPaintedItem15setContentsSizeERK5QSize@Qt_5 5.0.2
 _ZN17QQuickPaintedItem15setRenderTargetENS_12RenderTargetE@Qt_5 5.0.2
 _ZN17QQuickPaintedItem15updatePaintNodeEP7QSGNodePN10QQuickItem19UpdatePaintNodeDataE@Qt_5 5.0.2
 _ZN17QQuickPaintedItem16fillColorChangedEv@Qt_5 5.0.2
 _ZN17QQuickPaintedItem16releaseResourcesEv@Qt_5 5.4.0
 _ZN17QQuickPaintedItem16setContentsScaleEd@Qt_5 5.2.0
 _ZN17QQuickPaintedItem16staticMetaObjectE@Qt_5 5.0.2
 _ZN17QQuickPaintedItem17resetContentsSizeEv@Qt_5 5.0.2
 _ZN17QQuickPaintedItem17setOpaquePaintingEb@Qt_5 5.0.2
 _ZN17QQuickPaintedItem18setPerformanceHintENS_15PerformanceHintEb@Qt_5 5.0.2
 _ZN17QQuickPaintedItem18textureSizeChangedEv@Qt_5 5.6.0~beta
 _ZN17QQuickPaintedItem19contentsSizeChangedEv@Qt_5 5.0.2
 _ZN17QQuickPaintedItem19renderTargetChangedEv@Qt_5 5.0.2
 _ZN17QQuickPaintedItem19setPerformanceHintsE6QFlagsINS_15PerformanceHintEE@Qt_5 5.0.2
 _ZN17QQuickPaintedItem20contentsScaleChangedEv@Qt_5 5.0.2
 _ZN17QQuickPaintedItem20invalidateSceneGraphEv@Qt_5 5.4.0
 _ZN17QQuickPaintedItem6updateERK5QRect@Qt_5 5.0.2
 _ZN17QQuickPaintedItem9setMipmapEb@Qt_5 5.0.2
 _ZN17QQuickPaintedItemC1EP10QQuickItem@Qt_5 5.0.2
 _ZN17QQuickPaintedItemC2EP10QQuickItem@Qt_5 5.0.2
 _ZN17QQuickPaintedItemD0Ev@Qt_5 5.0.2
 _ZN17QQuickPaintedItemD1Ev@Qt_5 5.0.2
 _ZN17QQuickPaintedItemD2Ev@Qt_5 5.0.2
 _ZN17QSGDynamicTexture11qt_metacallEN11QMetaObject4CallEiPPv@Qt_5 5.0.2
 _ZN17QSGDynamicTexture11qt_metacastEPKc@Qt_5 5.0.2
 _ZN17QSGDynamicTexture16staticMetaObjectE@Qt_5 5.0.2
 _ZN17QSGMaterialShader10deactivateEv@Qt_5 5.0.2
 _ZN17QSGMaterialShader11updateStateERKNS_11RenderStateEP11QSGMaterialS4_@Qt_5 5.0.2
 _ZN17QSGMaterialShader19setShaderSourceFileE6QFlagsIN13QOpenGLShader13ShaderTypeBitEERK7QString@Qt_5 5.2.0~rc1
 _ZN17QSGMaterialShader20setShaderSourceFilesE6QFlagsIN13QOpenGLShader13ShaderTypeBitEERK11QStringList@Qt_5 5.2.0~rc1
 _ZN17QSGMaterialShader7compileEv@Qt_5 5.0.2
 _ZN17QSGMaterialShader8activateEv@Qt_5 5.0.2
 _ZN17QSGMaterialShaderC1Ev@Qt_5 5.0.2
 _ZN17QSGMaterialShaderC2Ev@Qt_5 5.0.2
 _ZN17QSGMaterialShaderD0Ev@Qt_5 5.2.0~rc1
 _ZN17QSGMaterialShaderD1Ev@Qt_5 5.2.0~rc1
 _ZN17QSGMaterialShaderD2Ev@Qt_5 5.2.0~rc1
 _ZN17QSGSimpleRectNode7setRectERK6QRectF@Qt_5 5.0.2
 _ZN17QSGSimpleRectNode8setColorERK6QColor@Qt_5 5.0.2
 _ZN17QSGSimpleRectNodeC1ERK6QRectFRK6QColor@Qt_5 5.0.2
 _ZN17QSGSimpleRectNodeC1Ev@Qt_5 5.0.2
 _ZN17QSGSimpleRectNodeC2ERK6QRectFRK6QColor@Qt_5 5.0.2
 _ZN17QSGSimpleRectNodeC2Ev@Qt_5 5.0.2
 _ZN18QQuickTextDocument11qt_metacallEN11QMetaObject4CallEiPPv@Qt_5 5.1.0
 _ZN18QQuickTextDocument11qt_metacastEPKc@Qt_5 5.1.0
 _ZN18QQuickTextDocument16staticMetaObjectE@Qt_5 5.1.0
 _ZN18QQuickTextDocumentC1EP10QQuickItem@Qt_5 5.1.0
 _ZN18QQuickTextDocumentC2EP10QQuickItem@Qt_5 5.1.0
 _ZN18QSGTextureProvider11qt_metacallEN11QMetaObject4CallEiPPv@Qt_5 5.0.2
 _ZN18QSGTextureProvider11qt_metacastEPKc@Qt_5 5.0.2
 _ZN18QSGTextureProvider14textureChangedEv@Qt_5 5.0.2
 _ZN18QSGTextureProvider16staticMetaObjectE@Qt_5 5.0.2
 _ZN19QQuickImageProvider12requestImageERK7QStringP5QSizeRKS3_@Qt_5 5.0.2
 _ZN19QQuickImageProvider13requestPixmapERK7QStringP5QSizeRKS3_@Qt_5 5.0.2
 _ZN19QQuickImageProvider14requestTextureERK7QStringP5QSizeRKS3_@Qt_5 5.0.2
 _ZN19QQuickImageProviderC1EN21QQmlImageProviderBase9ImageTypeE6QFlagsINS0_4FlagEE@Qt_5 5.0.2
 _ZN19QQuickImageProviderC2EN21QQmlImageProviderBase9ImageTypeE6QFlagsINS0_4FlagEE@Qt_5 5.0.2
 _ZN19QQuickImageProviderD0Ev@Qt_5 5.0.2
 _ZN19QQuickImageProviderD1Ev@Qt_5 5.0.2
 _ZN19QQuickImageProviderD2Ev@Qt_5 5.0.2
 _ZN19QQuickImageResponse11qt_metacallEN11QMetaObject4CallEiPPv@Qt_5 5.6.0~beta
 _ZN19QQuickImageResponse11qt_metacastEPKc@Qt_5 5.6.0~beta
 _ZN19QQuickImageResponse16staticMetaObjectE@Qt_5 5.6.0~beta
 _ZN19QQuickImageResponse6cancelEv@Qt_5 5.6.0~beta
 _ZN19QQuickImageResponse8finishedEv@Qt_5 5.6.0~beta
 _ZN19QQuickImageResponseC1Ev@Qt_5 5.6.0~beta
 _ZN19QQuickImageResponseC2Ev@Qt_5 5.6.0~beta
 _ZN19QQuickImageResponseD0Ev@Qt_5 5.6.0~beta
 _ZN19QQuickImageResponseD1Ev@Qt_5 5.6.0~beta
 _ZN19QQuickImageResponseD2Ev@Qt_5 5.6.0~beta
 _ZN19QQuickRenderControl10initializeEP14QOpenGLContext@Qt_5 5.3.0
 _ZN19QQuickRenderControl10invalidateEv@Qt_5 5.3.0
 _ZN19QQuickRenderControl11polishItemsEv@Qt_5 5.3.0
 _ZN19QQuickRenderControl11qt_metacallEN11QMetaObject4CallEiPPv@Qt_5 5.3.0
 _ZN19QQuickRenderControl11qt_metacastEPKc@Qt_5 5.3.0
 _ZN19QQuickRenderControl12sceneChangedEv@Qt_5 5.3.0
 _ZN19QQuickRenderControl13prepareThreadEP7QThread@Qt_5 5.5.0
 _ZN19QQuickRenderControl15renderRequestedEv@Qt_5 5.3.0
 _ZN19QQuickRenderControl15renderWindowForEP12QQuickWindowP6QPoint@Qt_5 5.3.0
 _ZN19QQuickRenderControl16staticMetaObjectE@Qt_5 5.3.0
 _ZN19QQuickRenderControl4grabEv@Qt_5 5.3.0
 _ZN19QQuickRenderControl4syncEv@Qt_5 5.3.0
 _ZN19QQuickRenderControl6renderEv@Qt_5 5.3.0
 _ZN19QQuickRenderControlC1EP7QObject@Qt_5 5.4.0
 _ZN19QQuickRenderControlC2EP7QObject@Qt_5 5.4.0
 _ZN19QQuickRenderControlD0Ev@Qt_5 5.3.0
 _ZN19QQuickRenderControlD1Ev@Qt_5 5.3.0
 _ZN19QQuickRenderControlD2Ev@Qt_5 5.3.0
 _ZN19QSGAbstractRenderer11qt_metacallEN11QMetaObject4CallEiPPv@Qt_5 5.4.0
 _ZN19QSGAbstractRenderer11qt_metacastEPKc@Qt_5 5.4.0
 _ZN19QSGAbstractRenderer11setRootNodeEP11QSGRootNode@Qt_5 5.4.0
 _ZN19QSGAbstractRenderer12setClearModeE6QFlagsINS_12ClearModeBitEE@Qt_5 5.4.0
 _ZN19QSGAbstractRenderer13setClearColorERK6QColor@Qt_5 5.4.0
 _ZN19QSGAbstractRenderer13setDeviceRectERK5QRect@Qt_5 5.4.0
 _ZN19QSGAbstractRenderer15setViewportRectERK5QRect@Qt_5 5.4.0
 _ZN19QSGAbstractRenderer16staticMetaObjectE@Qt_5 5.4.0
 _ZN19QSGAbstractRenderer17sceneGraphChangedEv@Qt_5 5.4.0
 _ZN19QSGAbstractRenderer19setProjectionMatrixERK10QMatrix4x4@Qt_5 5.4.0
 _ZN19QSGAbstractRenderer25setProjectionMatrixToRectERK6QRectF6QFlagsINS_19MatrixTransformFlagEE@Qt_5 5.14.1
 _ZN19QSGAbstractRenderer25setProjectionMatrixToRectERK6QRectF@Qt_5 5.4.0
 _ZN19QSGAbstractRenderer32setProjectionMatrixWithNativeNDCERK10QMatrix4x4@Qt_5 5.14.1
 _ZN19QSGAbstractRendererC1EP7QObject@Qt_5 5.4.0
 _ZN19QSGAbstractRendererC2EP7QObject@Qt_5 5.4.0
 _ZN19QSGAbstractRendererD0Ev@Qt_5 5.4.0
 _ZN19QSGAbstractRendererD1Ev@Qt_5 5.4.0
 _ZN19QSGAbstractRendererD2Ev@Qt_5 5.4.0
 _ZN20QQuickItemGrabResult10saveToFileERK7QString@Qt_5 5.4.0
 _ZN20QQuickItemGrabResult11qt_metacallEN11QMetaObject4CallEiPPv@Qt_5 5.4.0
 _ZN20QQuickItemGrabResult11qt_metacastEPKc@Qt_5 5.4.0
 _ZN20QQuickItemGrabResult16staticMetaObjectE@Qt_5 5.4.0
 _ZN20QQuickItemGrabResult5eventEP6QEvent@Qt_5 5.4.0
 _ZN20QQuickItemGrabResult5readyEv@Qt_5 5.4.0
 _ZN20QQuickItemGrabResult5setupEv@Qt_5 5.4.0
 _ZN20QQuickItemGrabResult6renderEv@Qt_5 5.4.0
 _ZN20QQuickItemGrabResultC1EP7QObject@Qt_5 5.4.0
 _ZN20QQuickItemGrabResultC2EP7QObject@Qt_5 5.4.0
 _ZN20QQuickTextureFactory11qt_metacallEN11QMetaObject4CallEiPPv@Qt_5 5.11.0
 _ZN20QQuickTextureFactory11qt_metacastEPKc@Qt_5 5.11.0
 _ZN20QQuickTextureFactory16staticMetaObjectE@Qt_5 5.11.0
 _ZN20QQuickTextureFactory22textureFactoryForImageERK6QImage@Qt_5 5.6.0~beta
 _ZN20QQuickTextureFactoryC1Ev@Qt_5 5.0.2
 _ZN20QQuickTextureFactoryC2Ev@Qt_5 5.0.2
 _ZN20QQuickTextureFactoryD0Ev@Qt_5 5.0.2
 _ZN20QQuickTextureFactoryD1Ev@Qt_5 5.0.2
 _ZN20QQuickTextureFactoryD2Ev@Qt_5 5.0.2
 _ZN20QSGBasicGeometryNode11setGeometryEP11QSGGeometry@Qt_5 5.0.2
 _ZN20QSGBasicGeometryNodeC1EN7QSGNode8NodeTypeE@Qt_5 5.0.2
 _ZN20QSGBasicGeometryNodeC1ER27QSGBasicGeometryNodePrivateN7QSGNode8NodeTypeE@Qt_5 5.2.0~beta1
 _ZN20QSGBasicGeometryNodeC2EN7QSGNode8NodeTypeE@Qt_5 5.0.2
 _ZN20QSGBasicGeometryNodeC2ER27QSGBasicGeometryNodePrivateN7QSGNode8NodeTypeE@Qt_5 5.2.0~beta1
 _ZN20QSGBasicGeometryNodeD0Ev@Qt_5 5.0.2
 _ZN20QSGBasicGeometryNodeD1Ev@Qt_5 5.0.2
 _ZN20QSGBasicGeometryNodeD2Ev@Qt_5 5.0.2
 _ZN20QSGFlatColorMaterial8setColorERK6QColor@Qt_5 5.0.2
 _ZN20QSGFlatColorMaterialC1Ev@Qt_5 5.0.2
 _ZN20QSGFlatColorMaterialC2Ev@Qt_5 5.0.2
 _ZN20QSGMaterialRhiShader11RenderState11uniformDataEv@Qt_5 5.14.1
 _ZN20QSGMaterialRhiShader11RenderState19resourceUpdateBatchEv@Qt_5 5.14.1
 _ZN20QSGMaterialRhiShader11RenderState3rhiEv@Qt_5 5.14.1
 _ZN20QSGMaterialRhiShader17setShaderFileNameENS_5StageERK7QString@Qt_5 5.14.1
 _ZN20QSGMaterialRhiShader17updateUniformDataERNS_11RenderStateEP11QSGMaterialS3_@Qt_5 5.14.1
 _ZN20QSGMaterialRhiShader18updateSampledImageERNS_11RenderStateEiPP10QSGTextureP11QSGMaterialS6_@Qt_5 5.14.1
 _ZN20QSGMaterialRhiShader27updateGraphicsPipelineStateERNS_11RenderStateEPNS_21GraphicsPipelineStateEP11QSGMaterialS5_@Qt_5 5.14.1
 _ZN20QSGMaterialRhiShader7setFlagE6QFlagsINS_4FlagEEb@Qt_5 5.14.1
 _ZN20QSGMaterialRhiShader9setShaderENS_5StageERK7QShader@Qt_5 5.14.1
 _ZN20QSGMaterialRhiShaderC1Ev@Qt_5 5.14.1
 _ZN20QSGMaterialRhiShaderC2Ev@Qt_5 5.14.1
 _ZN20QSGMaterialRhiShaderD0Ev@Qt_5 5.14.1
 _ZN20QSGMaterialRhiShaderD1Ev@Qt_5 5.14.1
 _ZN20QSGMaterialRhiShaderD2Ev@Qt_5 5.14.1
 _ZN20QSGRendererInterface13isApiRhiBasedENS_11GraphicsApiE@Qt_5 5.14.1
 _ZN20QSGRendererInterfaceD0Ev@Qt_5 5.9.0~beta
 _ZN20QSGRendererInterfaceD1Ev@Qt_5 5.9.0~beta
 _ZN20QSGRendererInterfaceD2Ev@Qt_5 5.9.0~beta
 _ZN20QSGSimpleTextureNode10setTextureEP10QSGTexture@Qt_5 5.0.2
 _ZN20QSGSimpleTextureNode12setFilteringEN10QSGTexture9FilteringE@Qt_5 5.0.2
 _ZN20QSGSimpleTextureNode13setSourceRectERK6QRectF@Qt_5 5.5.0
 _ZN20QSGSimpleTextureNode14setOwnsTextureEb@Qt_5 5.4.0
 _ZN20QSGSimpleTextureNode30setTextureCoordinatesTransformE6QFlagsINS_31TextureCoordinatesTransformFlagEE@Qt_5 5.2.0~beta1
 _ZN20QSGSimpleTextureNode7setRectERK6QRectF@Qt_5 5.0.2
 _ZN20QSGSimpleTextureNodeC1Ev@Qt_5 5.0.2
 _ZN20QSGSimpleTextureNodeC2Ev@Qt_5 5.0.2
 _ZN20QSGSimpleTextureNodeD0Ev@Qt_5 5.0.2
 _ZN20QSGSimpleTextureNodeD1Ev@Qt_5 5.0.2
 _ZN20QSGSimpleTextureNodeD2Ev@Qt_5 5.0.2
 _ZN22QSGVertexColorMaterialC1Ev@Qt_5 5.0.2
 _ZN22QSGVertexColorMaterialC2Ev@Qt_5 5.0.2
 _ZN23QQuickFramebufferObject11qt_metacallEN11QMetaObject4CallEiPPv@Qt_5 5.2.0~beta1
 _ZN23QQuickFramebufferObject11qt_metacastEPKc@Qt_5 5.2.0~beta1
 _ZN23QQuickFramebufferObject15geometryChangedERK6QRectFS2_@Qt_5 5.2.0~beta1
 _ZN23QQuickFramebufferObject15updatePaintNodeEP7QSGNodePN10QQuickItem19UpdatePaintNodeDataE@Qt_5 5.2.0~beta1
 _ZN23QQuickFramebufferObject16releaseResourcesEv@Qt_5 5.4.0
 _ZN23QQuickFramebufferObject16staticMetaObjectE@Qt_5 5.2.0~beta1
 _ZN23QQuickFramebufferObject19setMirrorVerticallyEb@Qt_5 5.6.0~beta
 _ZN23QQuickFramebufferObject20invalidateSceneGraphEv@Qt_5 5.4.0
 _ZN23QQuickFramebufferObject23mirrorVerticallyChangedEb@Qt_5 5.6.0~beta
 _ZN23QQuickFramebufferObject25setTextureFollowsItemSizeEb@Qt_5 5.2.0~beta1
 _ZN23QQuickFramebufferObject29textureFollowsItemSizeChangedEb@Qt_5 5.2.0~beta1
 _ZN23QQuickFramebufferObjectC1EP10QQuickItem@Qt_5 5.2.0~beta1
 _ZN23QQuickFramebufferObjectC2EP10QQuickItem@Qt_5 5.2.0~beta1
 _ZN24QQuickAsyncImageProviderC1Ev@Qt_5 5.6.0~beta
 _ZN24QQuickAsyncImageProviderC2Ev@Qt_5 5.6.0~beta
 _ZN24QQuickAsyncImageProviderD0Ev@Qt_5 5.6.0~beta
 _ZN24QQuickAsyncImageProviderD1Ev@Qt_5 5.6.0~beta
 _ZN24QQuickAsyncImageProviderD2Ev@Qt_5 5.6.0~beta
 _ZN24QSGOpaqueTextureMaterial10setTextureEP10QSGTexture@Qt_5 5.0.2
 _ZN24QSGOpaqueTextureMaterialC1Ev@Qt_5 5.0.2
 _ZN24QSGOpaqueTextureMaterialC2Ev@Qt_5 5.0.2
 _ZN7QSGNode15appendChildNodeEPS_@Qt_5 5.0.2
 _ZN7QSGNode15removeChildNodeEPS_@Qt_5 5.0.2
 _ZN7QSGNode16prependChildNodeEPS_@Qt_5 5.0.2
 _ZN7QSGNode19removeAllChildNodesEv@Qt_5 5.0.2
 _ZN7QSGNode20insertChildNodeAfterEPS_S0_@Qt_5 5.0.2
 _ZN7QSGNode20reparentChildNodesToEPS_@Qt_5 5.5.0
 _ZN7QSGNode21insertChildNodeBeforeEPS_S0_@Qt_5 5.0.2
 _ZN7QSGNode4initEv@Qt_5 5.0.2
 _ZN7QSGNode7destroyEv@Qt_5 5.0.2
 _ZN7QSGNode7setFlagENS_4FlagEb@Qt_5 5.0.2
 _ZN7QSGNode8setFlagsE6QFlagsINS_4FlagEEb@Qt_5 5.0.2
 _ZN7QSGNode9markDirtyE6QFlagsINS_13DirtyStateBitEE@Qt_5 5.0.2
 _ZN7QSGNodeC1ENS_8NodeTypeE@Qt_5 5.0.2
 _ZN7QSGNodeC1ER14QSGNodePrivateNS_8NodeTypeE@Qt_5 5.2.0~beta1
 _ZN7QSGNodeC1Ev@Qt_5 5.0.2
 _ZN7QSGNodeC2ENS_8NodeTypeE@Qt_5 5.0.2
 _ZN7QSGNodeC2ER14QSGNodePrivateNS_8NodeTypeE@Qt_5 5.2.0~beta1
 _ZN7QSGNodeC2Ev@Qt_5 5.0.2
 _ZN7QSGNodeD0Ev@Qt_5 5.0.2
 _ZN7QSGNodeD1Ev@Qt_5 5.0.2
 _ZN7QSGNodeD2Ev@Qt_5 5.0.2
 _ZN9QSGEngine10initializeEP14QOpenGLContext@Qt_5 5.4.0
 _ZN9QSGEngine10invalidateEv@Qt_5 5.4.0
 _ZN9QSGEngine11qt_metacallEN11QMetaObject4CallEiPPv@Qt_5 5.4.0
 _ZN9QSGEngine11qt_metacastEPKc@Qt_5 5.4.0
 _ZN9QSGEngine16staticMetaObjectE@Qt_5 5.4.0
 _ZN9QSGEngineC1EP7QObject@Qt_5 5.4.0
 _ZN9QSGEngineC2EP7QObject@Qt_5 5.4.0
 _ZN9QSGEngineD0Ev@Qt_5 5.4.0
 _ZN9QSGEngineD1Ev@Qt_5 5.4.0
 _ZN9QSGEngineD2Ev@Qt_5 5.4.0
 _ZNK10QQuickItem10childItemsEv@Qt_5 5.0.2
 _ZNK10QQuickItem10mapToSceneERK7QPointF@Qt_5 5.0.2
 _ZNK10QQuickItem10metaObjectEv@Qt_5 5.0.2
 _ZNK10QQuickItem10parentItemEv@Qt_5 5.0.2
 _ZNK10QQuickItem10widthValidEv@Qt_5 5.0.2
 _ZNK10QQuickItem11heightValidEv@Qt_5 5.0.2
 _ZNK10QQuickItem11mapFromItemEP14QQmlV4Function@Qt_5 5.2.0~beta1
 _ZNK10QQuickItem11mapFromItemEPKS_RK7QPointF@Qt_5 5.0.2
 _ZNK10QQuickItem11mapToGlobalEP14QQmlV4Function@Qt_5 5.9.0~beta
 _ZNK10QQuickItem11mapToGlobalERK7QPointF@Qt_5 5.7.0
 _ZNK10QQuickItem12antialiasingEv@Qt_5 5.0.2
 _ZNK10QQuickItem12boundingRectEv@Qt_5 5.0.2
 _ZNK10QQuickItem12isAncestorOfEPKS_@Qt_5 5.7.0
 _ZNK10QQuickItem12isFocusScopeEv@Qt_5 5.0.2
 _ZNK10QQuickItem12isUnderMouseEv@Qt_5 5.0.2
 _ZNK10QQuickItem12mapFromSceneERK7QPointF@Qt_5 5.0.2
 _ZNK10QQuickItem13implicitWidthEv@Qt_5 5.0.2
 _ZNK10QQuickItem13itemTransformEPS_Pb@Qt_5 5.0.2
 _ZNK10QQuickItem13keepMouseGrabEv@Qt_5 5.0.2
 _ZNK10QQuickItem13keepTouchGrabEv@Qt_5 5.0.2
 _ZNK10QQuickItem13mapFromGlobalEP14QQmlV4Function@Qt_5 5.9.0~beta
 _ZNK10QQuickItem13mapFromGlobalERK7QPointF@Qt_5 5.7.0
 _ZNK10QQuickItem13mapRectToItemEPKS_RK6QRectF@Qt_5 5.0.2
 _ZNK10QQuickItem14baselineOffsetEv@Qt_5 5.0.2
 _ZNK10QQuickItem14hasActiveFocusEv@Qt_5 5.0.2
 _ZNK10QQuickItem14implicitHeightEv@Qt_5 5.0.2
 _ZNK10QQuickItem14mapRectToSceneERK6QRectF@Qt_5 5.0.2
 _ZNK10QQuickItem15containmentMaskEv@Qt_5 5.11.0
 _ZNK10QQuickItem15mapRectFromItemEPKS_RK6QRectF@Qt_5 5.0.2
 _ZNK10QQuickItem15scopedFocusItemEv@Qt_5 5.0.2
 _ZNK10QQuickItem15textureProviderEv@Qt_5 5.0.2
 _ZNK10QQuickItem15transformOriginEv@Qt_5 5.0.2
 _ZNK10QQuickItem16activeFocusOnTabEv@Qt_5 5.1.0
 _ZNK10QQuickItem16inputMethodQueryEN2Qt16InputMethodQueryE@Qt_5 5.0.2
 _ZNK10QQuickItem16mapRectFromSceneERK6QRectF@Qt_5 5.0.2
 _ZNK10QQuickItem17acceptHoverEventsEv@Qt_5 5.0.2
 _ZNK10QQuickItem17acceptTouchEventsEv@Qt_5 5.10.0
 _ZNK10QQuickItem17isTextureProviderEv@Qt_5 5.0.2
 _ZNK10QQuickItem19isComponentCompleteEv@Qt_5 5.0.2
 _ZNK10QQuickItem1xEv@Qt_5 5.0.2
 _ZNK10QQuickItem1yEv@Qt_5 5.0.2
 _ZNK10QQuickItem1zEv@Qt_5 5.0.2
 _ZNK10QQuickItem20acceptedMouseButtonsEv@Qt_5 5.0.2
 _ZNK10QQuickItem20transformOriginPointEv@Qt_5 5.0.2
 _ZNK10QQuickItem23filtersChildMouseEventsEv@Qt_5 5.0.2
 _ZNK10QQuickItem4clipEv@Qt_5 5.0.2
 _ZNK10QQuickItem4sizeEv@Qt_5 5.10.0
 _ZNK10QQuickItem5flagsEv@Qt_5 5.0.2
 _ZNK10QQuickItem5scaleEv@Qt_5 5.0.2
 _ZNK10QQuickItem5stateEv@Qt_5 5.0.2
 _ZNK10QQuickItem5widthEv@Qt_5 5.0.2
 _ZNK10QQuickItem6cursorEv@Qt_5 5.0.2
 _ZNK10QQuickItem6heightEv@Qt_5 5.0.2
 _ZNK10QQuickItem6smoothEv@Qt_5 5.0.2
 _ZNK10QQuickItem6windowEv@Qt_5 5.0.2
 _ZNK10QQuickItem7childAtEdd@Qt_5 5.2.0
 _ZNK10QQuickItem7opacityEv@Qt_5 5.0.2
 _ZNK10QQuickItem8clipRectEv@Qt_5 5.0.2
 _ZNK10QQuickItem8containsERK7QPointF@Qt_5 5.0.2
 _ZNK10QQuickItem8hasFocusEv@Qt_5 5.0.2
 _ZNK10QQuickItem8positionEv@Qt_5 5.0.2
 _ZNK10QQuickItem8rotationEv@Qt_5 5.0.2
 _ZNK10QQuickItem9isEnabledEv@Qt_5 5.0.2
 _ZNK10QQuickItem9isVisibleEv@Qt_5 5.0.2
 _ZNK10QQuickItem9mapToItemEP14QQmlV4Function@Qt_5 5.2.0~beta1
 _ZNK10QQuickItem9mapToItemEPKS_RK7QPointF@Qt_5 5.0.2
 _ZNK10QQuickView10metaObjectEv@Qt_5 5.0.2
 _ZNK10QQuickView10resizeModeEv@Qt_5 5.0.2
 _ZNK10QQuickView10rootObjectEv@Qt_5 5.0.2
 _ZNK10QQuickView11initialSizeEv@Qt_5 5.0.2
 _ZNK10QQuickView11rootContextEv@Qt_5 5.0.2
 _ZNK10QQuickView6engineEv@Qt_5 5.0.2
 _ZNK10QQuickView6errorsEv@Qt_5 5.0.2
 _ZNK10QQuickView6sourceEv@Qt_5 5.0.2
 _ZNK10QQuickView6statusEv@Qt_5 5.0.2
 _ZNK10QQuickView8sizeHintEv@Qt_5 5.0.2
 _ZNK10QSGTexture10metaObjectEv@Qt_5 5.0.2
 _ZNK10QSGTexture13comparisonKeyEv@Qt_5 5.14.1
 _ZNK10QSGTexture13nativeTextureEv@Qt_5 5.15.1
 _ZNK10QSGTexture14isAtlasTextureEv@Qt_5 5.0.2
 _ZNK10QSGTexture15anisotropyLevelEv@Qt_5 5.9.0~beta
 _ZNK10QSGTexture15mipmapFilteringEv@Qt_5 5.0.2
 _ZNK10QSGTexture16removedFromAtlasEv@Qt_5 5.0.2
 _ZNK10QSGTexture16verticalWrapModeEv@Qt_5 5.0.2
 _ZNK10QSGTexture18horizontalWrapModeEv@Qt_5 5.0.2
 _ZNK10QSGTexture24normalizedTextureSubRectEv@Qt_5 5.0.2
 _ZNK10QSGTexture9filteringEv@Qt_5 5.0.2
 _ZNK11QSGGeometry9indexDataEv@Qt_5 5.0.2
 _ZNK11QSGGeometry9lineWidthEv@Qt_5 5.0.2
 _ZNK11QSGMaterial7compareEPKS_@Qt_5 5.0.2
 (optional=inline|arch=arm64 hurd-i386 i386 kfreebsd-i386)_ZNK12QPaintDevice7devTypeEv@Qt_5 5.10.1
 _ZNK12QQuickWindow10metaObjectEv@Qt_5 5.0.2
 _ZNK12QQuickWindow11contentItemEv@Qt_5 5.0.2
 _ZNK12QQuickWindow11focusObjectEv@Qt_5 5.0.2
 _ZNK12QQuickWindow12renderTargetEv@Qt_5 5.0.2
 _ZNK12QQuickWindow13openglContextEv@Qt_5 5.0.2
 _ZNK12QQuickWindow14accessibleRootEv@Qt_5 5.0.2
 _ZNK12QQuickWindow14renderTargetIdEv@Qt_5 5.0.2
 _ZNK12QQuickWindow15activeFocusItemEv@Qt_5 5.0.2
 _ZNK12QQuickWindow15createImageNodeEv@Qt_5 5.9.0~beta
 _ZNK12QQuickWindow16mouseGrabberItemEv@Qt_5 5.0.2
 _ZNK12QQuickWindow16renderTargetSizeEv@Qt_5 5.0.2
 _ZNK12QQuickWindow17rendererInterfaceEv@Qt_5 5.9.0~beta
 _ZNK12QQuickWindow19createNinePatchNodeEv@Qt_5 5.9.0~beta
 _ZNK12QQuickWindow19createRectangleNodeEv@Qt_5 5.9.0~beta
 _ZNK12QQuickWindow19createTextureFromIdEjRK5QSize6QFlagsINS_19CreateTextureOptionEE@Qt_5 5.0.2
 _ZNK12QQuickWindow20clearBeforeRenderingEv@Qt_5 5.0.2
 _ZNK12QQuickWindow20incubationControllerEv@Qt_5 5.0.2
 _ZNK12QQuickWindow22createTextureFromImageERK6QImage6QFlagsINS_19CreateTextureOptionEE@Qt_5 5.2.0~beta1
 _ZNK12QQuickWindow22createTextureFromImageERK6QImage@Qt_5 5.0.2
 _ZNK12QQuickWindow22isPersistentSceneGraphEv@Qt_5 5.0.2
 _ZNK12QQuickWindow23isSceneGraphInitializedEv@Qt_5 5.5.0
 _ZNK12QQuickWindow25effectiveDevicePixelRatioEv@Qt_5 5.4.0
 _ZNK12QQuickWindow25isPersistentOpenGLContextEv@Qt_5 5.0.2
 _ZNK12QQuickWindow29createTextureFromNativeObjectENS_16NativeObjectTypeEPKviRK5QSize6QFlagsINS_19CreateTextureOptionEE@Qt_5 5.14.1
 _ZNK12QQuickWindow5colorEv@Qt_5 5.0.2
 _ZNK13QSGRenderNode11RenderState3getEPKc@Qt_5 5.9.0~beta
 _ZNK13QSGRenderNode13changedStatesEv@Qt_5 5.9.0~beta
 _ZNK13QSGRenderNode16inheritedOpacityEv@Qt_5 5.9.0~beta
 _ZNK13QSGRenderNode4rectEv@Qt_5 5.9.0~beta
 _ZNK13QSGRenderNode5flagsEv@Qt_5 5.9.0~beta
 _ZNK13QSGRenderNode6matrixEv@Qt_5 5.9.0~beta
 _ZNK13QSGRenderNode8clipListEv@Qt_5 5.9.0~beta
 _ZNK14QSGOpacityNode16isSubtreeBlockedEv@Qt_5 5.0.2
 _ZNK15QQuickTransform10metaObjectEv@Qt_5 5.3.0
 _ZNK15QSGGeometryNode14activeMaterialEv@Qt_5 5.0.2
 _ZNK17QQuickPaintedItem10metaObjectEv@Qt_5 5.0.2
 _ZNK17QQuickPaintedItem11textureSizeEv@Qt_5 5.6.0~beta
 _ZNK17QQuickPaintedItem12antialiasingEv@Qt_5 5.0.2
 _ZNK17QQuickPaintedItem12contentsSizeEv@Qt_5 5.0.2
 _ZNK17QQuickPaintedItem12renderTargetEv@Qt_5 5.0.2
 _ZNK17QQuickPaintedItem13contentsScaleEv@Qt_5 5.0.2
 _ZNK17QQuickPaintedItem14opaquePaintingEv@Qt_5 5.0.2
 _ZNK17QQuickPaintedItem15textureProviderEv@Qt_5 5.4.0
 _ZNK17QQuickPaintedItem16performanceHintsEv@Qt_5 5.0.2
 _ZNK17QQuickPaintedItem17isTextureProviderEv@Qt_5 5.4.0
 _ZNK17QQuickPaintedItem20contentsBoundingRectEv@Qt_5 5.0.2
 _ZNK17QQuickPaintedItem6mipmapEv@Qt_5 5.0.2
 _ZNK17QQuickPaintedItem9fillColorEv@Qt_5 5.0.2
 _ZNK17QSGDynamicTexture10metaObjectEv@Qt_5 5.0.2
 _ZNK17QSGMaterialShader11RenderState10deviceRectEv@Qt_5 5.0.2
 _ZNK17QSGMaterialShader11RenderState11determinantEv@Qt_5 5.0.2
 _ZNK17QSGMaterialShader11RenderState12viewportRectEv@Qt_5 5.0.2
 _ZNK17QSGMaterialShader11RenderState14combinedMatrixEv@Qt_5 5.0.2
 _ZNK17QSGMaterialShader11RenderState15modelViewMatrixEv@Qt_5 5.0.2
 _ZNK17QSGMaterialShader11RenderState16devicePixelRatioEv@Qt_5 5.1.0
 _ZNK17QSGMaterialShader11RenderState16projectionMatrixEv@Qt_5 5.1.0
 _ZNK17QSGMaterialShader11RenderState7contextEv@Qt_5 5.0.2
 _ZNK17QSGMaterialShader11RenderState7opacityEv@Qt_5 5.0.2
 _ZNK17QSGMaterialShader12vertexShaderEv@Qt_5 5.2.0~rc1
 _ZNK17QSGMaterialShader14fragmentShaderEv@Qt_5 5.2.0~rc1
 _ZNK17QSGSimpleRectNode4rectEv@Qt_5 5.0.2
 _ZNK17QSGSimpleRectNode5colorEv@Qt_5 5.0.2
 _ZNK18QQuickTextDocument10metaObjectEv@Qt_5 5.1.0
 _ZNK18QQuickTextDocument12textDocumentEv@Qt_5 5.1.0
 _ZNK18QSGTextureMaterial12createShaderEv@Qt_5 5.0.2
 _ZNK18QSGTextureMaterial4typeEv@Qt_5 5.0.2
 _ZNK18QSGTextureProvider10metaObjectEv@Qt_5 5.0.2
 _ZNK19QQuickImageProvider5flagsEv@Qt_5 5.0.2
 _ZNK19QQuickImageProvider9imageTypeEv@Qt_5 5.0.2
 _ZNK19QQuickImageResponse10metaObjectEv@Qt_5 5.6.0~beta
 _ZNK19QQuickImageResponse11errorStringEv@Qt_5 5.6.0~beta
 _ZNK19QQuickRenderControl10metaObjectEv@Qt_5 5.3.0
 _ZNK19QSGAbstractRenderer10clearColorEv@Qt_5 5.4.0
 _ZNK19QSGAbstractRenderer10deviceRectEv@Qt_5 5.4.0
 _ZNK19QSGAbstractRenderer10metaObjectEv@Qt_5 5.4.0
 _ZNK19QSGAbstractRenderer12viewportRectEv@Qt_5 5.4.0
 _ZNK19QSGAbstractRenderer16projectionMatrixEv@Qt_5 5.4.0
 _ZNK19QSGAbstractRenderer29projectionMatrixWithNativeNDCEv@Qt_5 5.14.1
 _ZNK19QSGAbstractRenderer8rootNodeEv@Qt_5 5.4.0
 _ZNK19QSGAbstractRenderer9clearModeEv@Qt_5 5.4.0
 _ZNK20QQuickItemGrabResult10metaObjectEv@Qt_5 5.4.0
 _ZNK20QQuickItemGrabResult10saveToFileERK7QString@Qt_5 5.9.0~beta
 _ZNK20QQuickItemGrabResult3urlEv@Qt_5 5.4.0
 _ZNK20QQuickItemGrabResult5imageEv@Qt_5 5.4.0
 _ZNK20QQuickTextureFactory10metaObjectEv@Qt_5 5.11.0
 _ZNK20QQuickTextureFactory5imageEv@Qt_5 5.0.2
 _ZNK20QSGFlatColorMaterial12createShaderEv@Qt_5 5.0.2
 _ZNK20QSGFlatColorMaterial4typeEv@Qt_5 5.0.2
 _ZNK20QSGFlatColorMaterial7compareEPK11QSGMaterial@Qt_5 5.0.2
 _ZNK20QSGMaterialRhiShader11RenderState10deviceRectEv@Qt_5 5.14.1
 _ZNK20QSGMaterialRhiShader11RenderState11determinantEv@Qt_5 5.14.1
 _ZNK20QSGMaterialRhiShader11RenderState12viewportRectEv@Qt_5 5.14.1
 _ZNK20QSGMaterialRhiShader11RenderState14combinedMatrixEv@Qt_5 5.14.1
 _ZNK20QSGMaterialRhiShader11RenderState15modelViewMatrixEv@Qt_5 5.14.1
 _ZNK20QSGMaterialRhiShader11RenderState16devicePixelRatioEv@Qt_5 5.14.1
 _ZNK20QSGMaterialRhiShader11RenderState16projectionMatrixEv@Qt_5 5.14.1
 _ZNK20QSGMaterialRhiShader11RenderState7opacityEv@Qt_5 5.14.1
 _ZNK20QSGMaterialRhiShader14attributeNamesEv@Qt_5 5.14.1
 _ZNK20QSGMaterialRhiShader5flagsEv@Qt_5 5.14.1
 _ZNK20QSGRendererInterface11getResourceEP12QQuickWindowNS_8ResourceE@Qt_5 5.9.0~beta
 _ZNK20QSGRendererInterface11getResourceEP12QQuickWindowPKc@Qt_5 5.9.0~beta
 _ZNK20QSGSimpleTextureNode10sourceRectEv@Qt_5 5.5.0
 _ZNK20QSGSimpleTextureNode11ownsTextureEv@Qt_5 5.4.0
 _ZNK20QSGSimpleTextureNode27textureCoordinatesTransformEv@Qt_5 5.2.0~beta1
 _ZNK20QSGSimpleTextureNode4rectEv@Qt_5 5.0.2
 _ZNK20QSGSimpleTextureNode7textureEv@Qt_5 5.0.2
 _ZNK20QSGSimpleTextureNode9filteringEv@Qt_5 5.0.2
 _ZNK22QSGVertexColorMaterial12createShaderEv@Qt_5 5.0.2
 _ZNK22QSGVertexColorMaterial4typeEv@Qt_5 5.0.2
 _ZNK22QSGVertexColorMaterial7compareEPK11QSGMaterial@Qt_5 5.0.2
 _ZNK23QQuickFramebufferObject10metaObjectEv@Qt_5 5.2.0~beta1
 _ZNK23QQuickFramebufferObject15textureProviderEv@Qt_5 5.4.0
 _ZNK23QQuickFramebufferObject16mirrorVerticallyEv@Qt_5 5.6.0~beta
 _ZNK23QQuickFramebufferObject17isTextureProviderEv@Qt_5 5.4.0
 _ZNK23QQuickFramebufferObject22textureFollowsItemSizeEv@Qt_5 5.2.0~beta1
 _ZNK24QSGOpaqueTextureMaterial12createShaderEv@Qt_5 5.0.2
 _ZNK24QSGOpaqueTextureMaterial4typeEv@Qt_5 5.0.2
 _ZNK24QSGOpaqueTextureMaterial7compareEPK11QSGMaterial@Qt_5 5.0.2
 _ZNK7QSGNode10childCountEv@Qt_5 5.0.2
 _ZNK7QSGNode12childAtIndexEi@Qt_5 5.0.2
 _ZNK7QSGNode16isSubtreeBlockedEv@Qt_5 5.0.2
 _ZNK9QSGEngine10metaObjectEv@Qt_5 5.4.0
 _ZNK9QSGEngine14createRendererEv@Qt_5 5.4.0
 _ZNK9QSGEngine15createImageNodeEv@Qt_5 5.9.0~beta
 _ZNK9QSGEngine17rendererInterfaceEv@Qt_5 5.9.0~beta
 _ZNK9QSGEngine19createNinePatchNodeEv@Qt_5 5.9.0~beta
 _ZNK9QSGEngine19createRectangleNodeEv@Qt_5 5.9.0~beta
 _ZNK9QSGEngine19createTextureFromIdEjRK5QSize6QFlagsINS_19CreateTextureOptionEE@Qt_5 5.4.0
 _ZNK9QSGEngine22createTextureFromImageERK6QImage6QFlagsINS_19CreateTextureOptionEE@Qt_5 5.4.0
 _ZTI10QQuickItem@Qt_5 5.0.2
 _ZTI10QQuickView@Qt_5 5.0.2
 _ZTI10QSGTexture@Qt_5 5.0.2
 _ZTI11QSGClipNode@Qt_5 5.0.2
 _ZTI11QSGGeometry@Qt_5 5.0.2
 _ZTI11QSGMaterial@Qt_5 5.0.2
 _ZTI11QSGRootNode@Qt_5 5.0.2
 _ZTI12QQmlRefCount@Qt_5 5.4.0
 _ZTI12QQuickWindow@Qt_5 5.0.2
 _ZTI12QSGImageNode@Qt_5 5.9.0~beta
 _ZTI13QSGRenderNode@Qt_5 5.9.0~beta
 _ZTI14QSGNodeVisitor@Qt_5 5.0.2
 _ZTI14QSGOpacityNode@Qt_5 5.0.2
 _ZTI15QQuickTransform@Qt_5 5.3.0
 _ZTI15QSGGeometryNode@Qt_5 5.0.2
 _ZTI16QOpenGLFunctions@Qt_5 5.0.2
 _ZTI16QQmlCustomParser@Qt_5 5.0.2
 _ZTI16QSGNinePatchNode@Qt_5 5.9.0~beta
 _ZTI16QSGRectangleNode@Qt_5 5.9.0~beta
 _ZTI16QSGTransformNode@Qt_5 5.0.2
 _ZTI17QQuickPaintedItem@Qt_5 5.0.2
 _ZTI17QSGDynamicTexture@Qt_5 5.0.2
 _ZTI17QSGMaterialShader@Qt_5 5.0.2
 _ZTI17QSGSimpleRectNode@Qt_5 5.0.2
 _ZTI18QQuickTextDocument@Qt_5 5.1.0
 _ZTI18QSGTextureMaterial@Qt_5 5.0.2
 _ZTI18QSGTextureProvider@Qt_5 5.0.2
 _ZTI19QQuickImageProvider@Qt_5 5.0.2
 _ZTI19QQuickImageResponse@Qt_5 5.6.0~beta
 _ZTI19QQuickRenderControl@Qt_5 5.3.0
 _ZTI19QSGAbstractRenderer@Qt_5 5.4.0
 _ZTI20QQuickItemGrabResult@Qt_5 5.4.0
 _ZTI20QQuickTextureFactory@Qt_5 5.0.2
 _ZTI20QSGBasicGeometryNode@Qt_5 5.0.2
 _ZTI20QSGFlatColorMaterial@Qt_5 5.0.2
 _ZTI20QSGMaterialRhiShader@Qt_5 5.14.1
 _ZTI20QSGRendererInterface@Qt_5 5.9.0~beta
 _ZTI20QSGSimpleTextureNode@Qt_5 5.0.2
 _ZTI22QSGVertexColorMaterial@Qt_5 5.0.2
 _ZTI23QQuickFramebufferObject@Qt_5 5.2.0~beta1
 _ZTI24QQuickAsyncImageProvider@Qt_5 5.6.0~beta
 _ZTI24QSGOpaqueTextureMaterial@Qt_5 5.0.2
 _ZTI7QSGNode@Qt_5 5.0.2
 _ZTI9QSGEngine@Qt_5 5.4.0
 _ZTIN13QSGRenderNode11RenderStateE@Qt_5 5.9.0~beta
 _ZTIN3QV415ExecutionEngine9DeletableE@Qt_5 5.14.1
 _ZTS10QQuickItem@Qt_5 5.0.2
 _ZTS10QQuickView@Qt_5 5.0.2
 _ZTS10QSGTexture@Qt_5 5.0.2
 _ZTS11QSGClipNode@Qt_5 5.0.2
 _ZTS11QSGGeometry@Qt_5 5.0.2
 _ZTS11QSGMaterial@Qt_5 5.0.2
 _ZTS11QSGRootNode@Qt_5 5.0.2
 _ZTS12QQmlRefCount@Qt_5 5.4.0
 _ZTS12QQuickWindow@Qt_5 5.0.2
 _ZTS12QSGImageNode@Qt_5 5.9.0~beta
 _ZTS13QSGRenderNode@Qt_5 5.9.0~beta
 _ZTS14QSGNodeVisitor@Qt_5 5.0.2
 _ZTS14QSGOpacityNode@Qt_5 5.0.2
 _ZTS15QQuickTransform@Qt_5 5.3.0
 _ZTS15QSGGeometryNode@Qt_5 5.0.2
 _ZTS16QOpenGLFunctions@Qt_5 5.0.2
 _ZTS16QQmlCustomParser@Qt_5 5.0.2
 _ZTS16QSGNinePatchNode@Qt_5 5.9.0~beta
 _ZTS16QSGRectangleNode@Qt_5 5.9.0~beta
 _ZTS16QSGTransformNode@Qt_5 5.0.2
 _ZTS17QQuickPaintedItem@Qt_5 5.0.2
 _ZTS17QSGDynamicTexture@Qt_5 5.0.2
 _ZTS17QSGMaterialShader@Qt_5 5.0.2
 _ZTS17QSGSimpleRectNode@Qt_5 5.0.2
 _ZTS18QQuickTextDocument@Qt_5 5.1.0
 _ZTS18QSGTextureMaterial@Qt_5 5.0.2
 _ZTS18QSGTextureProvider@Qt_5 5.0.2
 _ZTS19QQuickImageProvider@Qt_5 5.0.2
 _ZTS19QQuickImageResponse@Qt_5 5.6.0~beta
 _ZTS19QQuickRenderControl@Qt_5 5.3.0
 _ZTS19QSGAbstractRenderer@Qt_5 5.4.0
 _ZTS20QQuickItemGrabResult@Qt_5 5.4.0
 _ZTS20QQuickTextureFactory@Qt_5 5.0.2
 _ZTS20QSGBasicGeometryNode@Qt_5 5.0.2
 _ZTS20QSGFlatColorMaterial@Qt_5 5.0.2
 _ZTS20QSGMaterialRhiShader@Qt_5 5.14.1
 _ZTS20QSGRendererInterface@Qt_5 5.9.0~beta
 _ZTS20QSGSimpleTextureNode@Qt_5 5.0.2
 _ZTS22QSGVertexColorMaterial@Qt_5 5.0.2
 _ZTS23QQuickFramebufferObject@Qt_5 5.2.0~beta1
 _ZTS24QQuickAsyncImageProvider@Qt_5 5.6.0~beta
 _ZTS24QSGOpaqueTextureMaterial@Qt_5 5.0.2
 _ZTS7QSGNode@Qt_5 5.0.2
 _ZTS9QSGEngine@Qt_5 5.4.0
 _ZTSN13QSGRenderNode11RenderStateE@Qt_5 5.9.0~beta
 _ZTSN3QV415ExecutionEngine9DeletableE@Qt_5 5.14.1
 _ZTV10QQuickItem@Qt_5 5.0.2
 _ZTV10QQuickView@Qt_5 5.0.2
 _ZTV10QSGTexture@Qt_5 5.0.2
 _ZTV11QSGClipNode@Qt_5 5.0.2
 _ZTV11QSGGeometry@Qt_5 5.0.2
 _ZTV11QSGMaterial@Qt_5 5.0.2
 _ZTV11QSGRootNode@Qt_5 5.0.2
 _ZTV12QQuickWindow@Qt_5 5.0.2
 _ZTV12QSGImageNode@Qt_5 5.9.0~beta
 _ZTV13QSGRenderNode@Qt_5 5.9.0~beta
 _ZTV14QSGNodeVisitor@Qt_5 5.0.2
 _ZTV14QSGOpacityNode@Qt_5 5.0.2
 _ZTV15QQuickTransform@Qt_5 5.3.0
 _ZTV15QSGGeometryNode@Qt_5 5.0.2
 _ZTV16QQmlCustomParser@Qt_5 5.0.2
 _ZTV16QSGNinePatchNode@Qt_5 5.9.0~beta
 _ZTV16QSGRectangleNode@Qt_5 5.9.0~beta
 _ZTV16QSGTransformNode@Qt_5 5.0.2
 _ZTV17QQuickPaintedItem@Qt_5 5.0.2
 _ZTV17QSGDynamicTexture@Qt_5 5.0.2
 _ZTV17QSGMaterialShader@Qt_5 5.0.2
 _ZTV17QSGSimpleRectNode@Qt_5 5.0.2
 _ZTV18QQuickTextDocument@Qt_5 5.1.0
 _ZTV18QSGTextureMaterial@Qt_5 5.0.2
 _ZTV18QSGTextureProvider@Qt_5 5.0.2
 _ZTV19QQuickImageProvider@Qt_5 5.0.2
 _ZTV19QQuickImageResponse@Qt_5 5.6.0~beta
 _ZTV19QQuickRenderControl@Qt_5 5.3.0
 _ZTV19QSGAbstractRenderer@Qt_5 5.4.0
 _ZTV20QQuickItemGrabResult@Qt_5 5.4.0
 _ZTV20QQuickTextureFactory@Qt_5 5.0.2
 _ZTV20QSGBasicGeometryNode@Qt_5 5.0.2
 _ZTV20QSGFlatColorMaterial@Qt_5 5.0.2
 _ZTV20QSGMaterialRhiShader@Qt_5 5.14.1
 _ZTV20QSGRendererInterface@Qt_5 5.9.0~beta
 _ZTV20QSGSimpleTextureNode@Qt_5 5.0.2
 _ZTV22QSGVertexColorMaterial@Qt_5 5.0.2
 _ZTV23QQuickFramebufferObject@Qt_5 5.2.0~beta1
 _ZTV24QQuickAsyncImageProvider@Qt_5 5.6.0~beta
 _ZTV24QSGOpaqueTextureMaterial@Qt_5 5.0.2
 _ZTV7QSGNode@Qt_5 5.0.2
 _ZTV9QSGEngine@Qt_5 5.4.0
 _ZTVN13QSGRenderNode11RenderStateE@Qt_5 5.9.0~beta
 _ZZZNK3QV414FunctionObject4callEPKNS_5ValueES3_iENKUlvE_clEvE15qstring_literal@Qt_5 5.12.2
 _Zls6QDebugP10QQuickItem@Qt_5 5.0.2
 _Zls6QDebugPK11QSGRootNode@Qt_5 5.0.2
 _Zls6QDebugPK12QQuickWindow@Qt_5 5.10.1
 _Zls6QDebugPK14QSGOpacityNode@Qt_5 5.0.2
 _Zls6QDebugPK15QSGGeometryNode@Qt_5 5.0.2
 _Zls6QDebugPK16QSGTransformNode@Qt_5 5.0.2
 _Zls6QDebugPK7QSGNode@Qt_5 5.0.2
 (c++)"non-virtual thunk to QQuickItem::classBegin()@Qt_5" 5.0.2
 (c++)"non-virtual thunk to QQuickItem::componentComplete()@Qt_5" 5.0.2
 (c++)"non-virtual thunk to QQuickItem::~QQuickItem()@Qt_5" 5.0.2
 (c++)"non-virtual thunk to QQuickPaintedItem::~QQuickPaintedItem()@Qt_5" 5.0.2
 (c++)"non-virtual thunk to QQuickView::~QQuickView()@Qt_5" 5.0.2
 (c++)"non-virtual thunk to QQuickWindow::~QQuickWindow()@Qt_5" 5.0.2
