# SymbolsHelper-Confirmed: 5.14.2 amd64 i386
libQt5QmlModels.so.5 libqt5qmlmodels5 #MINVER#
| libqt5qmlmodels5 #MINVER#, qtdeclarative-abi-5-14-2
 Qt_5.0@Qt_5.0 5.14.1
 Qt_5.10@Qt_5.10 5.14.1
 Qt_5.11@Qt_5.11 5.14.1
 Qt_5.12@Qt_5.12 5.14.1
 Qt_5.13@Qt_5.13 5.14.1
 Qt_5.14@Qt_5.14 5.14.1
 Qt_5.1@Qt_5.1 5.14.1
 Qt_5.2@Qt_5.2 5.14.1
 Qt_5.3@Qt_5.3 5.14.1
 Qt_5.4@Qt_5.4 5.14.1
 Qt_5.5@Qt_5.5 5.14.1
 Qt_5.6@Qt_5.6 5.14.1
 Qt_5.7@Qt_5.7 5.14.1
 Qt_5.8@Qt_5.8 5.14.1
 Qt_5.9@Qt_5.9 5.14.1
 Qt_5@Qt_5 5.14.1
 Qt_5_PRIVATE_API@Qt_5_PRIVATE_API 5.14.1 1
 _ZN13QQmlChangeSet4moveERK7QVectorINS_6ChangeEES4_@Qt_5_PRIVATE_API 5.14.1 1
 _ZN13QQmlChangeSet4moveEiiii@Qt_5_PRIVATE_API 5.14.1 1
 _ZN13QQmlChangeSet5applyERKS_@Qt_5_PRIVATE_API 5.14.1 1
 _ZN13QQmlChangeSet6changeEP7QVectorINS_6ChangeEE@Qt_5_PRIVATE_API 5.14.1 1
 _ZN13QQmlChangeSet6changeERK7QVectorINS_6ChangeEE@Qt_5_PRIVATE_API 5.14.1 1
 _ZN13QQmlChangeSet6changeEii@Qt_5_PRIVATE_API 5.14.1 1
 _ZN13QQmlChangeSet6insertERK7QVectorINS_6ChangeEE@Qt_5_PRIVATE_API 5.14.1 1
 _ZN13QQmlChangeSet6insertEii@Qt_5_PRIVATE_API 5.14.1 1
 _ZN13QQmlChangeSet6removeEP7QVectorINS_6ChangeEES3_@Qt_5_PRIVATE_API 5.14.1 1
 _ZN13QQmlChangeSet6removeERK7QVectorINS_6ChangeEEPS2_@Qt_5_PRIVATE_API 5.14.1 1
 _ZN13QQmlChangeSet6removeEii@Qt_5_PRIVATE_API 5.14.1 1
 _ZN13QQmlChangeSetC1ERKS_@Qt_5_PRIVATE_API 5.14.1 1
 _ZN13QQmlChangeSetC1Ev@Qt_5_PRIVATE_API 5.14.1 1
 _ZN13QQmlChangeSetC2ERKS_@Qt_5_PRIVATE_API 5.14.1 1
 _ZN13QQmlChangeSetC2Ev@Qt_5_PRIVATE_API 5.14.1 1
 _ZN13QQmlChangeSetD1Ev@Qt_5_PRIVATE_API 5.14.1 1
 _ZN13QQmlChangeSetD2Ev@Qt_5_PRIVATE_API 5.14.1 1
 _ZN13QQmlChangeSetaSERKS_@Qt_5_PRIVATE_API 5.14.1 1
 _ZN13QQmlListModel11qt_metacallEN11QMetaObject4CallEiPPv@Qt_5_PRIVATE_API 5.14.1 1
 _ZN13QQmlListModel11qt_metacastEPKc@Qt_5_PRIVATE_API 5.14.1 1
 _ZN13QQmlListModel11setPropertyEiRK7QStringRK8QVariant@Qt_5_PRIVATE_API 5.14.1 1
 _ZN13QQmlListModel12countChangedEv@Qt_5_PRIVATE_API 5.14.1 1
 _ZN13QQmlListModel14removeElementsEii@Qt_5_PRIVATE_API 5.14.1 1
 _ZN13QQmlListModel15createWithOwnerEPS_@Qt_5_PRIVATE_API 5.14.1 1
 _ZN13QQmlListModel15setDynamicRolesEb@Qt_5_PRIVATE_API 5.14.1 1
 _ZN13QQmlListModel16emitItemsChangedEiiRK7QVectorIiE@Qt_5_PRIVATE_API 5.14.1 1
 _ZN13QQmlListModel16staticMetaObjectE@Qt_5_PRIVATE_API 5.14.1 1
 _ZN13QQmlListModel17emitItemsInsertedEv@Qt_5_PRIVATE_API 5.14.1 1
 _ZN13QQmlListModel26emitItemsAboutToBeInsertedEii@Qt_5_PRIVATE_API 5.14.1 1
 _ZN13QQmlListModel3setEiRK8QJSValue@Qt_5_PRIVATE_API 5.14.1 1
 _ZN13QQmlListModel4moveEiii@Qt_5_PRIVATE_API 5.14.1 1
 _ZN13QQmlListModel4syncEPS_S0_@Qt_5_PRIVATE_API 5.14.1 1
 _ZN13QQmlListModel4syncEv@Qt_5_PRIVATE_API 5.14.1 1
 _ZN13QQmlListModel5agentEv@Qt_5_PRIVATE_API 5.14.1 1
 _ZN13QQmlListModel5clearEv@Qt_5_PRIVATE_API 5.14.1 1
 _ZN13QQmlListModel6appendEP14QQmlV4Function@Qt_5_PRIVATE_API 5.14.1 1
 _ZN13QQmlListModel6insertEP14QQmlV4Function@Qt_5_PRIVATE_API 5.14.1 1
 _ZN13QQmlListModel6removeEP14QQmlV4Function@Qt_5_PRIVATE_API 5.14.1 1
 _ZN13QQmlListModel7setDataERK11QModelIndexRK8QVarianti@Qt_5_PRIVATE_API 5.14.1 1
 _ZN13QQmlListModelC1EP7QObject@Qt_5_PRIVATE_API 5.14.1 1
 _ZN13QQmlListModelC1EPKS_P9ListModelPN3QV415ExecutionEngineEP7QObject@Qt_5_PRIVATE_API 5.14.1 1
 _ZN13QQmlListModelC1EPS_P24QQmlListModelWorkerAgent@Qt_5_PRIVATE_API 5.14.1 1
 _ZN13QQmlListModelC2EP7QObject@Qt_5_PRIVATE_API 5.14.1 1
 _ZN13QQmlListModelC2EPKS_P9ListModelPN3QV415ExecutionEngineEP7QObject@Qt_5_PRIVATE_API 5.14.1 1
 _ZN13QQmlListModelC2EPS_P24QQmlListModelWorkerAgent@Qt_5_PRIVATE_API 5.14.1 1
 _ZN13QQmlListModelD0Ev@Qt_5_PRIVATE_API 5.14.1 1
 _ZN13QQmlListModelD1Ev@Qt_5_PRIVATE_API 5.14.1 1
 _ZN13QQmlListModelD2Ev@Qt_5_PRIVATE_API 5.14.1 1
 _ZN14QQmlTableModel10classBeginEv@Qt_5_PRIVATE_API 5.14.1 1
 _ZN14QQmlTableModel10columns_atEP16QQmlListPropertyI20QQmlTableModelColumnEi@Qt_5_PRIVATE_API 5.14.1 1
 _ZN14QQmlTableModel11qt_metacallEN11QMetaObject4CallEiPPv@Qt_5_PRIVATE_API 5.14.1 1
 _ZN14QQmlTableModel11qt_metacastEPKc@Qt_5_PRIVATE_API 5.14.1 1
 _ZN14QQmlTableModel11rowsChangedEv@Qt_5_PRIVATE_API 5.14.1 1
 _ZN14QQmlTableModel13columns_clearEP16QQmlListPropertyI20QQmlTableModelColumnE@Qt_5_PRIVATE_API 5.14.1 1
 _ZN14QQmlTableModel13columns_countEP16QQmlListPropertyI20QQmlTableModelColumnE@Qt_5_PRIVATE_API 5.14.1 1
 _ZN14QQmlTableModel14columns_appendEP16QQmlListPropertyI20QQmlTableModelColumnEPS1_@Qt_5_PRIVATE_API 5.14.1 1
 _ZN14QQmlTableModel15rowCountChangedEv@Qt_5_PRIVATE_API 5.14.1 1
 _ZN14QQmlTableModel16staticMetaObjectE@Qt_5_PRIVATE_API 5.14.1 1
 _ZN14QQmlTableModel17componentCompleteEv@Qt_5_PRIVATE_API 5.14.1 1
 _ZN14QQmlTableModel18ColumnRoleMetadataC1EbRK7QStringN8QVariant4TypeES3_@Qt_5_PRIVATE_API 5.14.1 1
 _ZN14QQmlTableModel18ColumnRoleMetadataC1Ev@Qt_5_PRIVATE_API 5.14.1 1
 _ZN14QQmlTableModel18ColumnRoleMetadataC2EbRK7QStringN8QVariant4TypeES3_@Qt_5_PRIVATE_API 5.14.1 1
 _ZN14QQmlTableModel18ColumnRoleMetadataC2Ev@Qt_5_PRIVATE_API 5.14.1 1
 _ZN14QQmlTableModel18columnCountChangedEv@Qt_5_PRIVATE_API 5.14.1 1
 _ZN14QQmlTableModel19fetchColumnMetadataEv@Qt_5_PRIVATE_API 5.14.1 1
 _ZN14QQmlTableModel5clearEv@Qt_5_PRIVATE_API 5.14.1 1
 _ZN14QQmlTableModel6getRowEi@Qt_5_PRIVATE_API 5.14.1 1
 _ZN14QQmlTableModel6setRowEiRK8QVariant@Qt_5_PRIVATE_API 5.14.1 1
 _ZN14QQmlTableModel7columnsEv@Qt_5_PRIVATE_API 5.14.1 1
 _ZN14QQmlTableModel7moveRowEiii@Qt_5_PRIVATE_API 5.14.1 1
 _ZN14QQmlTableModel7setDataERK11QModelIndexRK7QStringRK8QVariant@Qt_5_PRIVATE_API 5.14.1 1
 _ZN14QQmlTableModel7setDataERK11QModelIndexRK8QVarianti@Qt_5_PRIVATE_API 5.14.1 1
 _ZN14QQmlTableModel7setRowsERK8QVariant@Qt_5_PRIVATE_API 5.14.1 1
 _ZN14QQmlTableModel8doInsertEiRK8QVariant@Qt_5_PRIVATE_API 5.14.1 1
 _ZN14QQmlTableModel9appendRowERK8QVariant@Qt_5_PRIVATE_API 5.14.1 1
 _ZN14QQmlTableModel9doSetRowsERK5QListI8QVariantE@Qt_5_PRIVATE_API 5.14.1 1
 _ZN14QQmlTableModel9insertRowEiRK8QVariant@Qt_5_PRIVATE_API 5.14.1 1
 _ZN14QQmlTableModel9removeRowEii@Qt_5_PRIVATE_API 5.14.1 1
 _ZN14QQmlTableModelC1EP7QObject@Qt_5_PRIVATE_API 5.14.1 1
 _ZN14QQmlTableModelC2EP7QObject@Qt_5_PRIVATE_API 5.14.1 1
 _ZN14QQmlTableModelD0Ev@Qt_5_PRIVATE_API 5.14.1 1
 _ZN14QQmlTableModelD1Ev@Qt_5_PRIVATE_API 5.14.1 1
 _ZN14QQmlTableModelD2Ev@Qt_5_PRIVATE_API 5.14.1 1
 _ZN15QQmlObjectModel11qt_metacallEN11QMetaObject4CallEiPPv@Qt_5_PRIVATE_API 5.14.1 1
 _ZN15QQmlObjectModel11qt_metacastEPKc@Qt_5_PRIVATE_API 5.14.1 1
 _ZN15QQmlObjectModel12variantValueEiRK7QString@Qt_5_PRIVATE_API 5.14.1 1
 _ZN15QQmlObjectModel15childrenChangedEv@Qt_5_PRIVATE_API 5.14.1 1
 _ZN15QQmlObjectModel16incubationStatusEi@Qt_5_PRIVATE_API 5.14.1 1
 _ZN15QQmlObjectModel16staticMetaObjectE@Qt_5_PRIVATE_API 5.14.1 1
 _ZN15QQmlObjectModel21qmlAttachedPropertiesEP7QObject@Qt_5_PRIVATE_API 5.14.1 1
 _ZN15QQmlObjectModel4moveEiii@Qt_5_PRIVATE_API 5.14.1 1
 _ZN15QQmlObjectModel5clearEv@Qt_5_PRIVATE_API 5.14.1 1
 _ZN15QQmlObjectModel6appendEP7QObject@Qt_5_PRIVATE_API 5.14.1 1
 _ZN15QQmlObjectModel6insertEiP7QObject@Qt_5_PRIVATE_API 5.14.1 1
 _ZN15QQmlObjectModel6objectEiN13QQmlIncubator14IncubationModeE@Qt_5_PRIVATE_API 5.14.1 1
 _ZN15QQmlObjectModel6removeEii@Qt_5_PRIVATE_API 5.14.1 1
 _ZN15QQmlObjectModel7releaseEP7QObject@Qt_5_PRIVATE_API 5.14.1 1
 _ZN15QQmlObjectModel8childrenEv@Qt_5_PRIVATE_API 5.14.1 1
 _ZN15QQmlObjectModelC1EP7QObject@Qt_5_PRIVATE_API 5.14.1 1
 _ZN15QQmlObjectModelC2EP7QObject@Qt_5_PRIVATE_API 5.14.1 1
 _ZN16QQmlAdaptorModel15invalidateModelEv@Qt_5_PRIVATE_API 5.14.1 1
 _ZN16QQmlAdaptorModel15objectDestroyedEP7QObject@Qt_5_PRIVATE_API 5.14.1 1
 _ZN16QQmlAdaptorModel16useImportVersionEi@Qt_5_PRIVATE_API 5.14.1 1
 _ZN16QQmlAdaptorModel8setModelERK8QVariantP7QObjectP10QQmlEngine@Qt_5_PRIVATE_API 5.14.1 1
 _ZN16QQmlAdaptorModel9AccessorsD0Ev@Qt_5_PRIVATE_API 5.14.1 1
 _ZN16QQmlAdaptorModel9AccessorsD1Ev@Qt_5_PRIVATE_API 5.14.1 1
 _ZN16QQmlAdaptorModel9AccessorsD2Ev@Qt_5_PRIVATE_API 5.14.1 1
 _ZN16QQmlAdaptorModelC1Ev@Qt_5_PRIVATE_API 5.14.1 1
 _ZN16QQmlAdaptorModelC2Ev@Qt_5_PRIVATE_API 5.14.1 1
 _ZN16QQmlAdaptorModelD0Ev@Qt_5_PRIVATE_API 5.14.1 1
 _ZN16QQmlAdaptorModelD1Ev@Qt_5_PRIVATE_API 5.14.1 1
 _ZN16QQmlAdaptorModelD2Ev@Qt_5_PRIVATE_API 5.14.1 1
 _ZN16QQmlInstantiator10classBeginEv@Qt_5_PRIVATE_API 5.14.1 1
 _ZN16QQmlInstantiator11objectAddedEiP7QObject@Qt_5_PRIVATE_API 5.14.1 1
 _ZN16QQmlInstantiator11qt_metacallEN11QMetaObject4CallEiPPv@Qt_5_PRIVATE_API 5.14.1 1
 _ZN16QQmlInstantiator11qt_metacastEPKc@Qt_5_PRIVATE_API 5.14.1 1
 _ZN16QQmlInstantiator11setDelegateEP13QQmlComponent@Qt_5_PRIVATE_API 5.14.1 1
 _ZN16QQmlInstantiator12countChangedEv@Qt_5_PRIVATE_API 5.14.1 1
 _ZN16QQmlInstantiator12modelChangedEv@Qt_5_PRIVATE_API 5.14.1 1
 _ZN16QQmlInstantiator13activeChangedEv@Qt_5_PRIVATE_API 5.14.1 1
 _ZN16QQmlInstantiator13objectChangedEv@Qt_5_PRIVATE_API 5.14.1 1
 _ZN16QQmlInstantiator13objectRemovedEiP7QObject@Qt_5_PRIVATE_API 5.14.1 1
 _ZN16QQmlInstantiator15delegateChangedEv@Qt_5_PRIVATE_API 5.14.1 1
 _ZN16QQmlInstantiator16staticMetaObjectE@Qt_5_PRIVATE_API 5.14.1 1
 _ZN16QQmlInstantiator17componentCompleteEv@Qt_5_PRIVATE_API 5.14.1 1
 _ZN16QQmlInstantiator19asynchronousChangedEv@Qt_5_PRIVATE_API 5.14.1 1
 _ZN16QQmlInstantiator8delegateEv@Qt_5_PRIVATE_API 5.14.1 1
 _ZN16QQmlInstantiator8setAsyncEb@Qt_5_PRIVATE_API 5.14.1 1
 _ZN16QQmlInstantiator8setModelERK8QVariant@Qt_5_PRIVATE_API 5.14.1 1
 _ZN16QQmlInstantiator9setActiveEb@Qt_5_PRIVATE_API 5.14.1 1
 _ZN16QQmlInstantiatorC1EP7QObject@Qt_5_PRIVATE_API 5.14.1 1
 _ZN16QQmlInstantiatorC2EP7QObject@Qt_5_PRIVATE_API 5.14.1 1
 _ZN16QQmlInstantiatorD0Ev@Qt_5_PRIVATE_API 5.14.1 1
 _ZN16QQmlInstantiatorD1Ev@Qt_5_PRIVATE_API 5.14.1 1
 _ZN16QQmlInstantiatorD2Ev@Qt_5_PRIVATE_API 5.14.1 1
 _ZN16QQmlModelsModule12defineModuleEv@Qt_5_PRIVATE_API 5.14.1 1
 _ZN16QQmlModelsModule16defineLabsModuleEv@Qt_5_PRIVATE_API 5.14.1 1
 _ZN16QQmlModelsModule16registerQmlTypesEv@Qt_5_PRIVATE_API 5.14.1 1
 _ZN16QQmlModelsModule18registerQuickTypesEv@Qt_5_PRIVATE_API 5.14.1 1
 _ZN17QQmlDelegateModel10classBeginEv@Qt_5_PRIVATE_API 5.14.1 1
 _ZN17QQmlDelegateModel11qt_metacallEN11QMetaObject4CallEiPPv@Qt_5_PRIVATE_API 5.14.1 1
 _ZN17QQmlDelegateModel11qt_metacastEPKc@Qt_5_PRIVATE_API 5.14.1 1
 _ZN17QQmlDelegateModel11setDelegateEP13QQmlComponent@Qt_5_PRIVATE_API 5.14.1 1
 _ZN17QQmlDelegateModel12_q_rowsMovedERK11QModelIndexiiS2_i@Qt_5_PRIVATE_API 5.14.1 1
 _ZN17QQmlDelegateModel12setRootIndexERK8QVariant@Qt_5_PRIVATE_API 5.14.1 1
 _ZN17QQmlDelegateModel12variantValueEiRK7QString@Qt_5_PRIVATE_API 5.14.1 1
 _ZN17QQmlDelegateModel13_q_itemsMovedEiii@Qt_5_PRIVATE_API 5.14.1 1
 _ZN17QQmlDelegateModel13_q_modelResetEv@Qt_5_PRIVATE_API 5.14.1 1
 _ZN17QQmlDelegateModel14_q_dataChangedERK11QModelIndexS2_RK7QVectorIiE@Qt_5_PRIVATE_API 5.14.1 1
 _ZN17QQmlDelegateModel14_q_rowsRemovedERK11QModelIndexii@Qt_5_PRIVATE_API 5.14.1 1
 _ZN17QQmlDelegateModel14persistedItemsEv@Qt_5_PRIVATE_API 5.14.1 1
 _ZN17QQmlDelegateModel14setFilterGroupERK7QString@Qt_5_PRIVATE_API 5.14.1 1
 _ZN17QQmlDelegateModel15_q_itemsChangedEiiRK7QVectorIiE@Qt_5_PRIVATE_API 5.14.1 1
 _ZN17QQmlDelegateModel15_q_itemsRemovedEii@Qt_5_PRIVATE_API 5.14.1 1
 _ZN17QQmlDelegateModel15_q_rowsInsertedERK11QModelIndexii@Qt_5_PRIVATE_API 5.14.1 1
 _ZN17QQmlDelegateModel15delegateChangedEv@Qt_5_PRIVATE_API 5.14.1 1
 _ZN17QQmlDelegateModel15setWatchedRolesERK5QListI10QByteArrayE@Qt_5_PRIVATE_API 5.14.1 1
 _ZN17QQmlDelegateModel16_q_itemsInsertedEii@Qt_5_PRIVATE_API 5.14.1 1
 _ZN17QQmlDelegateModel16_q_layoutChangedERK5QListI21QPersistentModelIndexEN18QAbstractItemModel16LayoutChangeHintE@Qt_5_PRIVATE_API 5.14.1 1
 _ZN17QQmlDelegateModel16incubationStatusEi@Qt_5_PRIVATE_API 5.14.1 1
 _ZN17QQmlDelegateModel16resetFilterGroupEv@Qt_5_PRIVATE_API 5.14.1 1
 _ZN17QQmlDelegateModel16rootIndexChangedEv@Qt_5_PRIVATE_API 5.14.1 1
 _ZN17QQmlDelegateModel16staticMetaObjectE@Qt_5_PRIVATE_API 5.14.1 1
 _ZN17QQmlDelegateModel17componentCompleteEv@Qt_5_PRIVATE_API 5.14.1 1
 _ZN17QQmlDelegateModel18filterGroupChangedEv@Qt_5_PRIVATE_API 5.14.1 1
 _ZN17QQmlDelegateModel20defaultGroupsChangedEv@Qt_5_PRIVATE_API 5.14.1 1
 _ZN17QQmlDelegateModel21qmlAttachedPropertiesEP7QObject@Qt_5_PRIVATE_API 5.14.1 1
 _ZN17QQmlDelegateModel23_q_rowsAboutToBeRemovedERK11QModelIndexii@Qt_5_PRIVATE_API 5.14.1 1
 _ZN17QQmlDelegateModel5eventEP6QEvent@Qt_5_PRIVATE_API 5.14.1 1
 _ZN17QQmlDelegateModel5itemsEv@Qt_5_PRIVATE_API 5.14.1 1
 _ZN17QQmlDelegateModel5partsEv@Qt_5_PRIVATE_API 5.14.1 1
 _ZN17QQmlDelegateModel6cancelEi@Qt_5_PRIVATE_API 5.14.1 1
 _ZN17QQmlDelegateModel6groupsEv@Qt_5_PRIVATE_API 5.14.1 1
 _ZN17QQmlDelegateModel6objectEiN13QQmlIncubator14IncubationModeE@Qt_5_PRIVATE_API 5.14.1 1
 _ZN17QQmlDelegateModel7releaseEP7QObject@Qt_5_PRIVATE_API 5.14.1 1
 _ZN17QQmlDelegateModel8setModelERK8QVariant@Qt_5_PRIVATE_API 5.14.1 1
 _ZN17QQmlDelegateModelC1EP11QQmlContextP7QObject@Qt_5_PRIVATE_API 5.14.1 1
 _ZN17QQmlDelegateModelC1Ev@Qt_5_PRIVATE_API 5.14.1 1
 _ZN17QQmlDelegateModelC2EP11QQmlContextP7QObject@Qt_5_PRIVATE_API 5.14.1 1
 _ZN17QQmlDelegateModelC2Ev@Qt_5_PRIVATE_API 5.14.1 1
 _ZN17QQmlDelegateModelD0Ev@Qt_5_PRIVATE_API 5.14.1 1
 _ZN17QQmlDelegateModelD1Ev@Qt_5_PRIVATE_API 5.14.1 1
 _ZN17QQmlDelegateModelD2Ev@Qt_5_PRIVATE_API 5.14.1 1
 _ZN17QQmlInstanceModel11createdItemEiP7QObject@Qt_5_PRIVATE_API 5.14.1 1
 _ZN17QQmlInstanceModel11qt_metacallEN11QMetaObject4CallEiPPv@Qt_5_PRIVATE_API 5.14.1 1
 _ZN17QQmlInstanceModel11qt_metacastEPKc@Qt_5_PRIVATE_API 5.14.1 1
 _ZN17QQmlInstanceModel12countChangedEv@Qt_5_PRIVATE_API 5.14.1 1
 _ZN17QQmlInstanceModel12modelUpdatedERK13QQmlChangeSetb@Qt_5_PRIVATE_API 5.14.1 1
 _ZN17QQmlInstanceModel14destroyingItemEP7QObject@Qt_5_PRIVATE_API 5.14.1 1
 _ZN17QQmlInstanceModel16staticMetaObjectE@Qt_5_PRIVATE_API 5.14.1 1
 _ZN17QQmlInstanceModel8initItemEiP7QObject@Qt_5_PRIVATE_API 5.14.1 1
 _ZN18QQmlDelegateChoice10rowChangedEv@Qt_5_PRIVATE_API 5.14.1 1
 _ZN18QQmlDelegateChoice11qt_metacallEN11QMetaObject4CallEiPPv@Qt_5_PRIVATE_API 5.14.1 1
 _ZN18QQmlDelegateChoice11qt_metacastEPKc@Qt_5_PRIVATE_API 5.14.1 1
 _ZN18QQmlDelegateChoice11setDelegateEP13QQmlComponent@Qt_5_PRIVATE_API 5.14.1 1
 _ZN18QQmlDelegateChoice12indexChangedEv@Qt_5_PRIVATE_API 5.14.1 1
 _ZN18QQmlDelegateChoice12setRoleValueERK8QVariant@Qt_5_PRIVATE_API 5.14.1 1
 _ZN18QQmlDelegateChoice13columnChangedEv@Qt_5_PRIVATE_API 5.14.1 1
 _ZN18QQmlDelegateChoice15delegateChangedEv@Qt_5_PRIVATE_API 5.14.1 1
 _ZN18QQmlDelegateChoice16roleValueChangedEv@Qt_5_PRIVATE_API 5.14.1 1
 _ZN18QQmlDelegateChoice16staticMetaObjectE@Qt_5_PRIVATE_API 5.14.1 1
 _ZN18QQmlDelegateChoice6setRowEi@Qt_5_PRIVATE_API 5.14.1 1
 _ZN18QQmlDelegateChoice7changedEv@Qt_5_PRIVATE_API 5.14.1 1
 _ZN18QQmlDelegateChoice9setColumnEi@Qt_5_PRIVATE_API 5.14.1 1
 _ZN19QQmlDelegateChooser10choices_atEP16QQmlListPropertyI18QQmlDelegateChoiceEi@Qt_5_PRIVATE_API 5.14.1 1
 _ZN19QQmlDelegateChooser11qt_metacallEN11QMetaObject4CallEiPPv@Qt_5_PRIVATE_API 5.14.1 1
 _ZN19QQmlDelegateChooser11qt_metacastEPKc@Qt_5_PRIVATE_API 5.14.1 1
 _ZN19QQmlDelegateChooser11roleChangedEv@Qt_5_PRIVATE_API 5.14.1 1
 _ZN19QQmlDelegateChooser13choices_clearEP16QQmlListPropertyI18QQmlDelegateChoiceE@Qt_5_PRIVATE_API 5.14.1 1
 _ZN19QQmlDelegateChooser13choices_countEP16QQmlListPropertyI18QQmlDelegateChoiceE@Qt_5_PRIVATE_API 5.14.1 1
 _ZN19QQmlDelegateChooser14choices_appendEP16QQmlListPropertyI18QQmlDelegateChoiceEPS1_@Qt_5_PRIVATE_API 5.14.1 1
 _ZN19QQmlDelegateChooser16staticMetaObjectE@Qt_5_PRIVATE_API 5.14.1 1
 _ZN19QQmlDelegateChooser7choicesEv@Qt_5_PRIVATE_API 5.14.1 1
 _ZN19QQmlDelegateChooser7setRoleERK7QString@Qt_5_PRIVATE_API 5.14.1 1
 _ZN20QQmlTableModelColumn10setDisplayERK8QJSValue@Qt_5_PRIVATE_API 5.14.1 1
 _ZN20QQmlTableModelColumn10setSetEditERK8QJSValue@Qt_5_PRIVATE_API 5.14.1 1
 _ZN20QQmlTableModelColumn10setSetFontERK8QJSValue@Qt_5_PRIVATE_API 5.14.1 1
 _ZN20QQmlTableModelColumn10setToolTipERK8QJSValue@Qt_5_PRIVATE_API 5.14.1 1
 _ZN20QQmlTableModelColumn11editChangedEv@Qt_5_PRIVATE_API 5.14.1 1
 _ZN20QQmlTableModelColumn11fontChangedEv@Qt_5_PRIVATE_API 5.14.1 1
 _ZN20QQmlTableModelColumn11qt_metacallEN11QMetaObject4CallEiPPv@Qt_5_PRIVATE_API 5.14.1 1
 _ZN20QQmlTableModelColumn11qt_metacastEPKc@Qt_5_PRIVATE_API 5.14.1 1
 _ZN20QQmlTableModelColumn11setSizeHintERK8QJSValue@Qt_5_PRIVATE_API 5.14.1 1
 _ZN20QQmlTableModelColumn12getterAtRoleERK7QString@Qt_5_PRIVATE_API 5.14.1 1
 _ZN20QQmlTableModelColumn12indexChangedEv@Qt_5_PRIVATE_API 5.14.1 1
 _ZN20QQmlTableModelColumn12setStatusTipERK8QJSValue@Qt_5_PRIVATE_API 5.14.1 1
 _ZN20QQmlTableModelColumn12setWhatsThisERK8QJSValue@Qt_5_PRIVATE_API 5.14.1 1
 _ZN20QQmlTableModelColumn12setterAtRoleERK7QString@Qt_5_PRIVATE_API 5.14.1 1
 _ZN20QQmlTableModelColumn13setBackgroundERK8QJSValue@Qt_5_PRIVATE_API 5.14.1 1
 _ZN20QQmlTableModelColumn13setCheckStateERK8QJSValue@Qt_5_PRIVATE_API 5.14.1 1
 _ZN20QQmlTableModelColumn13setDecorationERK8QJSValue@Qt_5_PRIVATE_API 5.14.1 1
 _ZN20QQmlTableModelColumn13setForegroundERK8QJSValue@Qt_5_PRIVATE_API 5.14.1 1
 _ZN20QQmlTableModelColumn13setSetDisplayERK8QJSValue@Qt_5_PRIVATE_API 5.14.1 1
 _ZN20QQmlTableModelColumn13setSetToolTipERK8QJSValue@Qt_5_PRIVATE_API 5.14.1 1
 _ZN20QQmlTableModelColumn14displayChangedEv@Qt_5_PRIVATE_API 5.14.1 1
 _ZN20QQmlTableModelColumn14setEditChangedEv@Qt_5_PRIVATE_API 5.14.1 1
 _ZN20QQmlTableModelColumn14setFontChangedEv@Qt_5_PRIVATE_API 5.14.1 1
 _ZN20QQmlTableModelColumn14setSetSizeHintERK8QJSValue@Qt_5_PRIVATE_API 5.14.1 1
 _ZN20QQmlTableModelColumn14toolTipChangedEv@Qt_5_PRIVATE_API 5.14.1 1
 _ZN20QQmlTableModelColumn15setSetStatusTipERK8QJSValue@Qt_5_PRIVATE_API 5.14.1 1
 _ZN20QQmlTableModelColumn15setSetWhatsThisERK8QJSValue@Qt_5_PRIVATE_API 5.14.1 1
 _ZN20QQmlTableModelColumn15sizeHintChangedEv@Qt_5_PRIVATE_API 5.14.1 1
 _ZN20QQmlTableModelColumn16setSetBackgroundERK8QJSValue@Qt_5_PRIVATE_API 5.14.1 1
 _ZN20QQmlTableModelColumn16setSetCheckStateERK8QJSValue@Qt_5_PRIVATE_API 5.14.1 1
 _ZN20QQmlTableModelColumn16setSetDecorationERK8QJSValue@Qt_5_PRIVATE_API 5.14.1 1
 _ZN20QQmlTableModelColumn16setSetForegroundERK8QJSValue@Qt_5_PRIVATE_API 5.14.1 1
 _ZN20QQmlTableModelColumn16setTextAlignmentERK8QJSValue@Qt_5_PRIVATE_API 5.14.1 1
 _ZN20QQmlTableModelColumn16staticMetaObjectE@Qt_5_PRIVATE_API 5.14.1 1
 _ZN20QQmlTableModelColumn16statusTipChangedEv@Qt_5_PRIVATE_API 5.14.1 1
 _ZN20QQmlTableModelColumn16whatsThisChangedEv@Qt_5_PRIVATE_API 5.14.1 1
 _ZN20QQmlTableModelColumn17backgroundChangedEv@Qt_5_PRIVATE_API 5.14.1 1
 _ZN20QQmlTableModelColumn17checkStateChangedEv@Qt_5_PRIVATE_API 5.14.1 1
 _ZN20QQmlTableModelColumn17decorationChangedEv@Qt_5_PRIVATE_API 5.14.1 1
 _ZN20QQmlTableModelColumn17foregroundChangedEv@Qt_5_PRIVATE_API 5.14.1 1
 _ZN20QQmlTableModelColumn17setAccessibleTextERK8QJSValue@Qt_5_PRIVATE_API 5.14.1 1
 _ZN20QQmlTableModelColumn17setDisplayChangedEv@Qt_5_PRIVATE_API 5.14.1 1
 _ZN20QQmlTableModelColumn17setToolTipChangedEv@Qt_5_PRIVATE_API 5.14.1 1
 _ZN20QQmlTableModelColumn18setSizeHintChangedEv@Qt_5_PRIVATE_API 5.14.1 1
 _ZN20QQmlTableModelColumn18supportedRoleNamesEv@Qt_5_PRIVATE_API 5.14.1 1
 _ZN20QQmlTableModelColumn19setSetTextAlignmentERK8QJSValue@Qt_5_PRIVATE_API 5.14.1 1
 _ZN20QQmlTableModelColumn19setStatusTipChangedEv@Qt_5_PRIVATE_API 5.14.1 1
 _ZN20QQmlTableModelColumn19setWhatsThisChangedEv@Qt_5_PRIVATE_API 5.14.1 1
 _ZN20QQmlTableModelColumn20setBackgroundChangedEv@Qt_5_PRIVATE_API 5.14.1 1
 _ZN20QQmlTableModelColumn20setCheckStateChangedEv@Qt_5_PRIVATE_API 5.14.1 1
 _ZN20QQmlTableModelColumn20setDecorationChangedEv@Qt_5_PRIVATE_API 5.14.1 1
 _ZN20QQmlTableModelColumn20setForegroundChangedEv@Qt_5_PRIVATE_API 5.14.1 1
 _ZN20QQmlTableModelColumn20setSetAccessibleTextERK8QJSValue@Qt_5_PRIVATE_API 5.14.1 1
 _ZN20QQmlTableModelColumn20textAlignmentChangedEv@Qt_5_PRIVATE_API 5.14.1 1
 _ZN20QQmlTableModelColumn21accessibleTextChangedEv@Qt_5_PRIVATE_API 5.14.1 1
 _ZN20QQmlTableModelColumn23setTextAlignmentChangedEv@Qt_5_PRIVATE_API 5.14.1 1
 _ZN20QQmlTableModelColumn24setAccessibleDescriptionERK8QJSValue@Qt_5_PRIVATE_API 5.14.1 1
 _ZN20QQmlTableModelColumn24setAccessibleTextChangedEv@Qt_5_PRIVATE_API 5.14.1 1
 _ZN20QQmlTableModelColumn27setSetAccessibleDescriptionERK8QJSValue@Qt_5_PRIVATE_API 5.14.1 1
 _ZN20QQmlTableModelColumn28accessibleDescriptionChangedEv@Qt_5_PRIVATE_API 5.14.1 1
 _ZN20QQmlTableModelColumn31setAccessibleDescriptionChangedEv@Qt_5_PRIVATE_API 5.14.1 1
 _ZN20QQmlTableModelColumn7setEditERK8QJSValue@Qt_5_PRIVATE_API 5.14.1 1
 _ZN20QQmlTableModelColumn7setFontERK8QJSValue@Qt_5_PRIVATE_API 5.14.1 1
 _ZN20QQmlTableModelColumnC1EP7QObject@Qt_5_PRIVATE_API 5.14.1 1
 _ZN20QQmlTableModelColumnC2EP7QObject@Qt_5_PRIVATE_API 5.14.1 1
 _ZN20QQmlTableModelColumnD0Ev@Qt_5_PRIVATE_API 5.14.1 1
 _ZN20QQmlTableModelColumnD1Ev@Qt_5_PRIVATE_API 5.14.1 1
 _ZN20QQmlTableModelColumnD2Ev@Qt_5_PRIVATE_API 5.14.1 1
 _ZN22QQmlDelegateModelGroup11nameChangedEv@Qt_5_PRIVATE_API 5.14.1 1
 _ZN22QQmlDelegateModelGroup11qt_metacallEN11QMetaObject4CallEiPPv@Qt_5_PRIVATE_API 5.14.1 1
 _ZN22QQmlDelegateModelGroup11qt_metacastEPKc@Qt_5_PRIVATE_API 5.14.1 1
 _ZN22QQmlDelegateModelGroup12countChangedEv@Qt_5_PRIVATE_API 5.14.1 1
 _ZN22QQmlDelegateModelGroup12removeGroupsEP14QQmlV4Function@Qt_5_PRIVATE_API 5.14.1 1
 _ZN22QQmlDelegateModelGroup16staticMetaObjectE@Qt_5_PRIVATE_API 5.14.1 1
 _ZN22QQmlDelegateModelGroup17setDefaultIncludeEb@Qt_5_PRIVATE_API 5.14.1 1
 _ZN22QQmlDelegateModelGroup21defaultIncludeChangedEv@Qt_5_PRIVATE_API 5.14.1 1
 _ZN22QQmlDelegateModelGroup3getEi@Qt_5_PRIVATE_API 5.14.1 1
 _ZN22QQmlDelegateModelGroup4moveEP14QQmlV4Function@Qt_5_PRIVATE_API 5.14.1 1
 _ZN22QQmlDelegateModelGroup6createEP14QQmlV4Function@Qt_5_PRIVATE_API 5.14.1 1
 _ZN22QQmlDelegateModelGroup6insertEP14QQmlV4Function@Qt_5_PRIVATE_API 5.14.1 1
 _ZN22QQmlDelegateModelGroup6removeEP14QQmlV4Function@Qt_5_PRIVATE_API 5.14.1 1
 _ZN22QQmlDelegateModelGroup7changedERK8QJSValueS2_@Qt_5_PRIVATE_API 5.14.1 1
 _ZN22QQmlDelegateModelGroup7resolveEP14QQmlV4Function@Qt_5_PRIVATE_API 5.14.1 1
 _ZN22QQmlDelegateModelGroup7setNameERK7QString@Qt_5_PRIVATE_API 5.14.1 1
 _ZN22QQmlDelegateModelGroup9addGroupsEP14QQmlV4Function@Qt_5_PRIVATE_API 5.14.1 1
 _ZN22QQmlDelegateModelGroup9setGroupsEP14QQmlV4Function@Qt_5_PRIVATE_API 5.14.1 1
 _ZN22QQmlDelegateModelGroupC1EP7QObject@Qt_5_PRIVATE_API 5.14.1 1
 _ZN22QQmlDelegateModelGroupC1ERK7QStringP17QQmlDelegateModeliP7QObject@Qt_5_PRIVATE_API 5.14.1 1
 _ZN22QQmlDelegateModelGroupC2EP7QObject@Qt_5_PRIVATE_API 5.14.1 1
 _ZN22QQmlDelegateModelGroupC2ERK7QStringP17QQmlDelegateModeliP7QObject@Qt_5_PRIVATE_API 5.14.1 1
 _ZN22QQmlDelegateModelGroupD0Ev@Qt_5_PRIVATE_API 5.14.1 1
 _ZN22QQmlDelegateModelGroupD1Ev@Qt_5_PRIVATE_API 5.14.1 1
 _ZN22QQmlDelegateModelGroupD2Ev@Qt_5_PRIVATE_API 5.14.1 1
 _ZN22QQmlTableInstanceModel10itemPooledEiP7QObject@Qt_5_PRIVATE_API 5.14.1 1
 _ZN22QQmlTableInstanceModel10itemReusedEiP7QObject@Qt_5_PRIVATE_API 5.14.1 1
 _ZN22QQmlTableInstanceModel11qt_metacallEN11QMetaObject4CallEiPPv@Qt_5_PRIVATE_API 5.14.1 1
 _ZN22QQmlTableInstanceModel11qt_metacastEPKc@Qt_5_PRIVATE_API 5.14.1 1
 _ZN22QQmlTableInstanceModel11setDelegateEP13QQmlComponent@Qt_5_PRIVATE_API 5.14.1 1
 _ZN22QQmlTableInstanceModel15resolveDelegateEi@Qt_5_PRIVATE_API 5.14.1 1
 _ZN22QQmlTableInstanceModel16incubationStatusEi@Qt_5_PRIVATE_API 5.14.1 1
 _ZN22QQmlTableInstanceModel16isDoneIncubatingEP21QQmlDelegateModelItem@Qt_5_PRIVATE_API 5.14.1 1
 _ZN22QQmlTableInstanceModel16resolveModelItemEi@Qt_5_PRIVATE_API 5.14.1 1
 _ZN22QQmlTableInstanceModel16staticMetaObjectE@Qt_5_PRIVATE_API 5.14.1 1
 _ZN22QQmlTableInstanceModel16useImportVersionEi@Qt_5_PRIVATE_API 5.14.1 1
 _ZN22QQmlTableInstanceModel17incubateModelItemEP21QQmlDelegateModelItemN13QQmlIncubator14IncubationModeE@Qt_5_PRIVATE_API 5.14.1 1
 _ZN22QQmlTableInstanceModel19dataChangedCallbackERK11QModelIndexS2_RK7QVectorIiE@Qt_5_PRIVATE_API 5.14.1 1
 _ZN22QQmlTableInstanceModel20deleteModelItemLaterEP21QQmlDelegateModelItem@Qt_5_PRIVATE_API 5.14.1 1
 _ZN22QQmlTableInstanceModel22drainReusableItemsPoolEi@Qt_5_PRIVATE_API 5.14.1 1
 _ZN22QQmlTableInstanceModel22incubatorStatusChangedEP36QQmlTableInstanceModelIncubationTaskN13QQmlIncubator6StatusE@Qt_5_PRIVATE_API 5.14.1 1
 _ZN22QQmlTableInstanceModel25deleteIncubationTaskLaterEP13QQmlIncubator@Qt_5_PRIVATE_API 5.14.1 1
 _ZN22QQmlTableInstanceModel25takeFromReusableItemsPoolEPK13QQmlComponent@Qt_5_PRIVATE_API 5.14.1 1
 _ZN22QQmlTableInstanceModel27insertIntoReusableItemsPoolEP21QQmlDelegateModelItem@Qt_5_PRIVATE_API 5.14.1 1
 _ZN22QQmlTableInstanceModel32deleteAllFinishedIncubationTasksEv@Qt_5_PRIVATE_API 5.14.1 1
 _ZN22QQmlTableInstanceModel6cancelEi@Qt_5_PRIVATE_API 5.14.1 1
 _ZN22QQmlTableInstanceModel6objectEiN13QQmlIncubator14IncubationModeE@Qt_5_PRIVATE_API 5.14.1 1
 _ZN22QQmlTableInstanceModel7disposeEP7QObject@Qt_5_PRIVATE_API 5.14.2 1
 _ZN22QQmlTableInstanceModel7releaseEP7QObjectNS_12ReusableFlagE@Qt_5_PRIVATE_API 5.14.1 1
 _ZN22QQmlTableInstanceModel8setModelERK8QVariant@Qt_5_PRIVATE_API 5.14.1 1
 _ZN22QQmlTableInstanceModel9reuseItemEP21QQmlDelegateModelItemi@Qt_5_PRIVATE_API 5.14.1 1
 _ZN22QQmlTableInstanceModelC1EP11QQmlContextP7QObject@Qt_5_PRIVATE_API 5.14.1 1
 _ZN22QQmlTableInstanceModelC2EP11QQmlContextP7QObject@Qt_5_PRIVATE_API 5.14.1 1
 _ZN22QQmlTableInstanceModelD0Ev@Qt_5_PRIVATE_API 5.14.1 1
 _ZN22QQmlTableInstanceModelD1Ev@Qt_5_PRIVATE_API 5.14.1 1
 _ZN22QQmlTableInstanceModelD2Ev@Qt_5_PRIVATE_API 5.14.1 1
 _ZN23QQmlInstantiatorPrivate10regenerateEv@Qt_5_PRIVATE_API 5.14.1 1
 _ZN23QQmlInstantiatorPrivate11modelObjectEib@Qt_5_PRIVATE_API 5.14.1 1
 _ZN23QQmlInstantiatorPrivate14_q_createdItemEiP7QObject@Qt_5_PRIVATE_API 5.14.1 1
 _ZN23QQmlInstantiatorPrivate15_q_modelUpdatedERK13QQmlChangeSetb@Qt_5_PRIVATE_API 5.14.1 1
 _ZN23QQmlInstantiatorPrivate5clearEv@Qt_5_PRIVATE_API 5.14.1 1
 _ZN23QQmlInstantiatorPrivate9makeModelEv@Qt_5_PRIVATE_API 5.14.1 1
 _ZN23QQmlInstantiatorPrivateC1Ev@Qt_5_PRIVATE_API 5.14.1 1
 _ZN23QQmlInstantiatorPrivateC2Ev@Qt_5_PRIVATE_API 5.14.1 1
 _ZN23QQmlInstantiatorPrivateD0Ev@Qt_5_PRIVATE_API 5.14.1 1
 _ZN23QQmlInstantiatorPrivateD1Ev@Qt_5_PRIVATE_API 5.14.1 1
 _ZN23QQmlInstantiatorPrivateD2Ev@Qt_5_PRIVATE_API 5.14.1 1
 _ZN29QQmlAbstractDelegateComponent11qt_metacallEN11QMetaObject4CallEiPPv@Qt_5_PRIVATE_API 5.14.1 1
 _ZN29QQmlAbstractDelegateComponent11qt_metacastEPKc@Qt_5_PRIVATE_API 5.14.1 1
 _ZN29QQmlAbstractDelegateComponent15delegateChangedEv@Qt_5_PRIVATE_API 5.14.1 1
 _ZN29QQmlAbstractDelegateComponent16staticMetaObjectE@Qt_5_PRIVATE_API 5.14.1 1
 _ZN29QQmlAbstractDelegateComponentC1EP7QObject@Qt_5_PRIVATE_API 5.14.1 1
 _ZN29QQmlAbstractDelegateComponentC2EP7QObject@Qt_5_PRIVATE_API 5.14.1 1
 _ZN29QQmlAbstractDelegateComponentD0Ev@Qt_5_PRIVATE_API 5.14.1 1
 _ZN29QQmlAbstractDelegateComponentD1Ev@Qt_5_PRIVATE_API 5.14.1 1
 _ZN29QQmlAbstractDelegateComponentD2Ev@Qt_5_PRIVATE_API 5.14.1 1
 _ZN29QQmlDelegateModelItemMetaType19initializePrototypeEv@Qt_5_PRIVATE_API 5.14.1 1
 _ZN29QQmlDelegateModelItemMetaType20initializeMetaObjectEv@Qt_5_PRIVATE_API 5.14.1 1
 _ZN29QQmlDelegateModelItemMetaTypeC1EPN3QV415ExecutionEngineEP17QQmlDelegateModelRK11QStringList@Qt_5_PRIVATE_API 5.14.1 1
 _ZN29QQmlDelegateModelItemMetaTypeC2EPN3QV415ExecutionEngineEP17QQmlDelegateModelRK11QStringList@Qt_5_PRIVATE_API 5.14.1 1
 _ZN29QQmlDelegateModelItemMetaTypeD0Ev@Qt_5_PRIVATE_API 5.14.1 1
 _ZN29QQmlDelegateModelItemMetaTypeD1Ev@Qt_5_PRIVATE_API 5.14.1 1
 _ZN29QQmlDelegateModelItemMetaTypeD2Ev@Qt_5_PRIVATE_API 5.14.1 1
 (optional=templinst|arch=hppa ia64 mips64el riscv64 sh4 sparc64 x32)_ZN3QV45Value2asINS_6ObjectEEEPT_v@Qt_5 5.14.1
 _ZNK13QQmlListModel10metaObjectEv@Qt_5_PRIVATE_API 5.14.1 1
 _ZNK13QQmlListModel3getEi@Qt_5_PRIVATE_API 5.14.1 1
 _ZNK13QQmlListModel4dataERK11QModelIndexi@Qt_5_PRIVATE_API 5.14.1 1
 _ZNK13QQmlListModel4dataEii@Qt_5_PRIVATE_API 5.14.1 1
 _ZNK13QQmlListModel5countEv@Qt_5_PRIVATE_API 5.14.1 1
 _ZNK13QQmlListModel5indexEiiRK11QModelIndex@Qt_5_PRIVATE_API 5.14.1 1
 _ZNK13QQmlListModel6engineEv@Qt_5_PRIVATE_API 5.14.1 1
 _ZNK13QQmlListModel8rowCountERK11QModelIndex@Qt_5_PRIVATE_API 5.14.1 1
 _ZNK13QQmlListModel9roleNamesEv@Qt_5_PRIVATE_API 5.14.1 1
 _ZNK14QQmlTableModel10metaObjectEv@Qt_5_PRIVATE_API 5.14.1 1
 _ZNK14QQmlTableModel11columnCountERK11QModelIndex@Qt_5_PRIVATE_API 5.14.1 1
 _ZNK14QQmlTableModel14validateNewRowEPKcRK8QVariantiNS_19NewRowOperationFlagE@Qt_5_PRIVATE_API 5.14.1 1
 _ZNK14QQmlTableModel15validateRowTypeEPKcRK8QVariant@Qt_5_PRIVATE_API 5.14.1 1
 _ZNK14QQmlTableModel16validateRowIndexEPKcS1_i@Qt_5_PRIVATE_API 5.14.1 1
 _ZNK14QQmlTableModel18ColumnRoleMetadata7isValidEv@Qt_5_PRIVATE_API 5.14.1 1
 _ZNK14QQmlTableModel19fetchColumnRoleDataERK7QStringP20QQmlTableModelColumni@Qt_5_PRIVATE_API 5.14.1 1
 _ZNK14QQmlTableModel4dataERK11QModelIndexRK7QString@Qt_5_PRIVATE_API 5.14.1 1
 _ZNK14QQmlTableModel4dataERK11QModelIndexi@Qt_5_PRIVATE_API 5.14.1 1
 _ZNK14QQmlTableModel4rowsEv@Qt_5_PRIVATE_API 5.14.1 1
 _ZNK14QQmlTableModel5indexEiiRK11QModelIndex@Qt_5_PRIVATE_API 5.14.1 1
 _ZNK14QQmlTableModel8rowCountERK11QModelIndex@Qt_5_PRIVATE_API 5.14.1 1
 _ZNK14QQmlTableModel9roleNamesEv@Qt_5_PRIVATE_API 5.14.1 1
 _ZNK15QQmlObjectModel10metaObjectEv@Qt_5_PRIVATE_API 5.14.1 1
 _ZNK15QQmlObjectModel3getEi@Qt_5_PRIVATE_API 5.14.1 1
 _ZNK15QQmlObjectModel5countEv@Qt_5_PRIVATE_API 5.14.1 1
 _ZNK15QQmlObjectModel7indexOfEP7QObjectS1_@Qt_5_PRIVATE_API 5.14.1 1
 _ZNK15QQmlObjectModel7isValidEv@Qt_5_PRIVATE_API 5.14.1 1
 _ZNK16QQmlAdaptorModel11columnCountEv@Qt_5_PRIVATE_API 5.14.1 1
 _ZNK16QQmlAdaptorModel5countEv@Qt_5_PRIVATE_API 5.14.1 1
 _ZNK16QQmlAdaptorModel5rowAtEi@Qt_5_PRIVATE_API 5.14.1 1
 _ZNK16QQmlAdaptorModel7indexAtEii@Qt_5_PRIVATE_API 5.14.1 1
 _ZNK16QQmlAdaptorModel7isValidEv@Qt_5_PRIVATE_API 5.14.1 1
 _ZNK16QQmlAdaptorModel8columnAtEi@Qt_5_PRIVATE_API 5.14.1 1
 _ZNK16QQmlAdaptorModel8rowCountEv@Qt_5_PRIVATE_API 5.14.1 1
 _ZNK16QQmlInstantiator10metaObjectEv@Qt_5_PRIVATE_API 5.14.1 1
 _ZNK16QQmlInstantiator5countEv@Qt_5_PRIVATE_API 5.14.1 1
 _ZNK16QQmlInstantiator5modelEv@Qt_5_PRIVATE_API 5.14.1 1
 _ZNK16QQmlInstantiator6objectEv@Qt_5_PRIVATE_API 5.14.1 1
 _ZNK16QQmlInstantiator7isAsyncEv@Qt_5_PRIVATE_API 5.14.1 1
 _ZNK16QQmlInstantiator8isActiveEv@Qt_5_PRIVATE_API 5.14.1 1
 _ZNK16QQmlInstantiator8objectAtEi@Qt_5_PRIVATE_API 5.14.1 1
 _ZNK17QQmlDelegateModel10metaObjectEv@Qt_5_PRIVATE_API 5.14.1 1
 _ZNK17QQmlDelegateModel10modelIndexEi@Qt_5_PRIVATE_API 5.14.1 1
 _ZNK17QQmlDelegateModel11filterGroupEv@Qt_5_PRIVATE_API 5.14.1 1
 _ZNK17QQmlDelegateModel14isDescendantOfERK21QPersistentModelIndexRK5QListIS0_E@Qt_5_PRIVATE_API 5.14.1 1
 _ZNK17QQmlDelegateModel16parentModelIndexEv@Qt_5_PRIVATE_API 5.14.1 1
 _ZNK17QQmlDelegateModel17abstractItemModelEv@Qt_5_PRIVATE_API 5.14.1 1
 _ZNK17QQmlDelegateModel5countEv@Qt_5_PRIVATE_API 5.14.1 1
 _ZNK17QQmlDelegateModel5modelEv@Qt_5_PRIVATE_API 5.14.1 1
 _ZNK17QQmlDelegateModel7indexOfEP7QObjectS1_@Qt_5_PRIVATE_API 5.14.1 1
 _ZNK17QQmlDelegateModel8delegateEv@Qt_5_PRIVATE_API 5.14.1 1
 _ZNK17QQmlDelegateModel9rootIndexEv@Qt_5_PRIVATE_API 5.14.1 1
 _ZNK17QQmlInstanceModel10metaObjectEv@Qt_5_PRIVATE_API 5.14.1 1
 _ZNK18QQmlDelegateChoice10metaObjectEv@Qt_5_PRIVATE_API 5.14.1 1
 _ZNK18QQmlDelegateChoice3rowEv@Qt_5_PRIVATE_API 5.14.1 1
 _ZNK18QQmlDelegateChoice5matchEiiRK8QVariant@Qt_5_PRIVATE_API 5.14.1 1
 _ZNK18QQmlDelegateChoice6columnEv@Qt_5_PRIVATE_API 5.14.1 1
 _ZNK18QQmlDelegateChoice8delegateEv@Qt_5_PRIVATE_API 5.14.1 1
 _ZNK18QQmlDelegateChoice9roleValueEv@Qt_5_PRIVATE_API 5.14.1 1
 _ZNK19QQmlDelegateChooser10metaObjectEv@Qt_5_PRIVATE_API 5.14.1 1
 _ZNK19QQmlDelegateChooser8delegateEP16QQmlAdaptorModelii@Qt_5_PRIVATE_API 5.14.1 1
 _ZNK20QQmlTableModelColumn10backgroundEv@Qt_5_PRIVATE_API 5.14.1 1
 _ZNK20QQmlTableModelColumn10checkStateEv@Qt_5_PRIVATE_API 5.14.1 1
 _ZNK20QQmlTableModelColumn10decorationEv@Qt_5_PRIVATE_API 5.14.1 1
 _ZNK20QQmlTableModelColumn10foregroundEv@Qt_5_PRIVATE_API 5.14.1 1
 _ZNK20QQmlTableModelColumn10getSetEditEv@Qt_5_PRIVATE_API 5.14.1 1
 _ZNK20QQmlTableModelColumn10getSetFontEv@Qt_5_PRIVATE_API 5.14.1 1
 _ZNK20QQmlTableModelColumn10metaObjectEv@Qt_5_PRIVATE_API 5.14.1 1
 _ZNK20QQmlTableModelColumn13getSetDisplayEv@Qt_5_PRIVATE_API 5.14.1 1
 _ZNK20QQmlTableModelColumn13getSetToolTipEv@Qt_5_PRIVATE_API 5.14.1 1
 _ZNK20QQmlTableModelColumn13textAlignmentEv@Qt_5_PRIVATE_API 5.14.1 1
 _ZNK20QQmlTableModelColumn14accessibleTextEv@Qt_5_PRIVATE_API 5.14.1 1
 _ZNK20QQmlTableModelColumn14getSetSizeHintEv@Qt_5_PRIVATE_API 5.14.1 1
 _ZNK20QQmlTableModelColumn15getSetStatusTipEv@Qt_5_PRIVATE_API 5.14.1 1
 _ZNK20QQmlTableModelColumn15getSetWhatsThisEv@Qt_5_PRIVATE_API 5.14.1 1
 _ZNK20QQmlTableModelColumn16getSetBackgroundEv@Qt_5_PRIVATE_API 5.14.1 1
 _ZNK20QQmlTableModelColumn16getSetCheckStateEv@Qt_5_PRIVATE_API 5.14.1 1
 _ZNK20QQmlTableModelColumn16getSetDecorationEv@Qt_5_PRIVATE_API 5.14.1 1
 _ZNK20QQmlTableModelColumn16getSetForegroundEv@Qt_5_PRIVATE_API 5.14.1 1
 _ZNK20QQmlTableModelColumn19getSetTextAlignmentEv@Qt_5_PRIVATE_API 5.14.1 1
 _ZNK20QQmlTableModelColumn20getSetAccessibleTextEv@Qt_5_PRIVATE_API 5.14.1 1
 _ZNK20QQmlTableModelColumn21accessibleDescriptionEv@Qt_5_PRIVATE_API 5.14.1 1
 _ZNK20QQmlTableModelColumn27getSetAccessibleDescriptionEv@Qt_5_PRIVATE_API 5.14.1 1
 _ZNK20QQmlTableModelColumn4editEv@Qt_5_PRIVATE_API 5.14.1 1
 _ZNK20QQmlTableModelColumn4fontEv@Qt_5_PRIVATE_API 5.14.1 1
 _ZNK20QQmlTableModelColumn7displayEv@Qt_5_PRIVATE_API 5.14.1 1
 _ZNK20QQmlTableModelColumn7gettersEv@Qt_5_PRIVATE_API 5.14.1 1
 _ZNK20QQmlTableModelColumn7toolTipEv@Qt_5_PRIVATE_API 5.14.1 1
 _ZNK20QQmlTableModelColumn8sizeHintEv@Qt_5_PRIVATE_API 5.14.1 1
 _ZNK20QQmlTableModelColumn9statusTipEv@Qt_5_PRIVATE_API 5.14.1 1
 _ZNK20QQmlTableModelColumn9whatsThisEv@Qt_5_PRIVATE_API 5.14.1 1
 _ZNK22QQmlDelegateModelGroup10metaObjectEv@Qt_5_PRIVATE_API 5.14.1 1
 _ZNK22QQmlDelegateModelGroup14defaultIncludeEv@Qt_5_PRIVATE_API 5.14.1 1
 _ZNK22QQmlDelegateModelGroup4nameEv@Qt_5_PRIVATE_API 5.14.1 1
 _ZNK22QQmlDelegateModelGroup5countEv@Qt_5_PRIVATE_API 5.14.1 1
 _ZNK22QQmlTableInstanceModel10metaObjectEv@Qt_5_PRIVATE_API 5.14.1 1
 _ZNK22QQmlTableInstanceModel17abstractItemModelEv@Qt_5_PRIVATE_API 5.14.1 1
 _ZNK22QQmlTableInstanceModel5modelEv@Qt_5_PRIVATE_API 5.14.1 1
 _ZNK22QQmlTableInstanceModel8delegateEv@Qt_5_PRIVATE_API 5.14.1 1
 _ZNK29QQmlAbstractDelegateComponent10metaObjectEv@Qt_5_PRIVATE_API 5.14.1 1
 _ZNK29QQmlAbstractDelegateComponent5valueEP16QQmlAdaptorModeliiRK7QString@Qt_5_PRIVATE_API 5.14.1 1
 _ZNK29QQmlDelegateModelItemMetaType11parseGroupsERK11QStringList@Qt_5_PRIVATE_API 5.14.1 1
 _ZNK29QQmlDelegateModelItemMetaType11parseGroupsERKN3QV45ValueE@Qt_5_PRIVATE_API 5.14.1 1
 _ZTI12QQmlRefCount@Qt_5 5.14.1
 _ZTI13QQmlListModel@Qt_5_PRIVATE_API 5.14.1 1
 _ZTI14QQmlTableModel@Qt_5_PRIVATE_API 5.14.1 1
 _ZTI15QQmlObjectModel@Qt_5_PRIVATE_API 5.14.1 1
 _ZTI16QQmlAdaptorModel@Qt_5_PRIVATE_API 5.14.1 1
 _ZTI16QQmlCustomParser@Qt_5 5.14.1
 _ZTI16QQmlInstantiator@Qt_5_PRIVATE_API 5.14.1 1
 _ZTI17QQmlDelegateModel@Qt_5_PRIVATE_API 5.14.1 1
 _ZTI17QQmlInstanceModel@Qt_5_PRIVATE_API 5.14.1 1
 _ZTI18QQmlDelegateChoice@Qt_5_PRIVATE_API 5.14.1 1
 _ZTI19QQmlDelegateChooser@Qt_5_PRIVATE_API 5.14.1 1
 _ZTI20QQmlTableModelColumn@Qt_5_PRIVATE_API 5.14.1 1
 _ZTI22QQmlDelegateModelGroup@Qt_5_PRIVATE_API 5.14.1 1
 _ZTI22QQmlTableInstanceModel@Qt_5_PRIVATE_API 5.14.1 1
 _ZTI23QQmlInstantiatorPrivate@Qt_5_PRIVATE_API 5.14.1 1
 _ZTI29QQmlAbstractDelegateComponent@Qt_5_PRIVATE_API 5.14.1 1
 _ZTI29QQmlDelegateModelItemMetaType@Qt_5_PRIVATE_API 5.14.1 1
 _ZTIN16QQmlAdaptorModel9AccessorsE@Qt_5_PRIVATE_API 5.14.1 1
 _ZTIN3QV415ExecutionEngine9DeletableE@Qt_5 5.14.1
 _ZTS12QQmlRefCount@Qt_5 5.14.1
 _ZTS13QQmlListModel@Qt_5_PRIVATE_API 5.14.1 1
 _ZTS14QQmlTableModel@Qt_5_PRIVATE_API 5.14.1 1
 _ZTS15QQmlObjectModel@Qt_5_PRIVATE_API 5.14.1 1
 _ZTS16QQmlAdaptorModel@Qt_5_PRIVATE_API 5.14.1 1
 _ZTS16QQmlCustomParser@Qt_5 5.14.1
 _ZTS16QQmlInstantiator@Qt_5_PRIVATE_API 5.14.1 1
 _ZTS17QQmlDelegateModel@Qt_5_PRIVATE_API 5.14.1 1
 _ZTS17QQmlInstanceModel@Qt_5_PRIVATE_API 5.14.1 1
 _ZTS18QQmlDelegateChoice@Qt_5_PRIVATE_API 5.14.1 1
 _ZTS19QQmlDelegateChooser@Qt_5_PRIVATE_API 5.14.1 1
 _ZTS20QQmlTableModelColumn@Qt_5_PRIVATE_API 5.14.1 1
 _ZTS22QQmlDelegateModelGroup@Qt_5_PRIVATE_API 5.14.1 1
 _ZTS22QQmlTableInstanceModel@Qt_5_PRIVATE_API 5.14.1 1
 _ZTS23QQmlInstantiatorPrivate@Qt_5_PRIVATE_API 5.14.1 1
 _ZTS29QQmlAbstractDelegateComponent@Qt_5_PRIVATE_API 5.14.1 1
 _ZTS29QQmlDelegateModelItemMetaType@Qt_5_PRIVATE_API 5.14.1 1
 _ZTSN16QQmlAdaptorModel9AccessorsE@Qt_5_PRIVATE_API 5.14.1 1
 _ZTSN3QV415ExecutionEngine9DeletableE@Qt_5 5.14.1
 _ZTV13QQmlListModel@Qt_5_PRIVATE_API 5.14.1 1
 _ZTV14QQmlTableModel@Qt_5_PRIVATE_API 5.14.1 1
 _ZTV15QQmlObjectModel@Qt_5_PRIVATE_API 5.14.1 1
 _ZTV16QQmlAdaptorModel@Qt_5_PRIVATE_API 5.14.1 1
 _ZTV16QQmlCustomParser@Qt_5 5.14.1
 _ZTV16QQmlInstantiator@Qt_5_PRIVATE_API 5.14.1 1
 _ZTV17QQmlDelegateModel@Qt_5_PRIVATE_API 5.14.1 1
 _ZTV17QQmlInstanceModel@Qt_5_PRIVATE_API 5.14.1 1
 _ZTV18QQmlDelegateChoice@Qt_5_PRIVATE_API 5.14.1 1
 _ZTV19QQmlDelegateChooser@Qt_5_PRIVATE_API 5.14.1 1
 _ZTV20QQmlTableModelColumn@Qt_5_PRIVATE_API 5.14.1 1
 _ZTV22QQmlDelegateModelGroup@Qt_5_PRIVATE_API 5.14.1 1
 _ZTV22QQmlTableInstanceModel@Qt_5_PRIVATE_API 5.14.1 1
 _ZTV23QQmlInstantiatorPrivate@Qt_5_PRIVATE_API 5.14.1 1
 _ZTV29QQmlAbstractDelegateComponent@Qt_5_PRIVATE_API 5.14.1 1
 _ZTV29QQmlDelegateModelItemMetaType@Qt_5_PRIVATE_API 5.14.1 1
 _ZTVN16QQmlAdaptorModel9AccessorsE@Qt_5_PRIVATE_API 5.14.1 1
 _ZZZNK3QV414FunctionObject4callEPKNS_5ValueES3_iENKUlvE_clEvE15qstring_literal@Qt_5 5.14.1
 _Zls6QDebugRK13QQmlChangeSet@Qt_5_PRIVATE_API 5.14.1 1
 _Zls6QDebugRKN13QQmlChangeSet6ChangeE@Qt_5_PRIVATE_API 5.14.1 1
 (c++)"non-virtual thunk to QQmlDelegateModel::classBegin()@Qt_5_PRIVATE_API" 5.14.1 1
 (c++)"non-virtual thunk to QQmlDelegateModel::componentComplete()@Qt_5_PRIVATE_API" 5.14.1 1
 (c++)"non-virtual thunk to QQmlDelegateModel::~QQmlDelegateModel()@Qt_5_PRIVATE_API" 5.14.1 1
 (c++)"non-virtual thunk to QQmlInstantiator::classBegin()@Qt_5_PRIVATE_API" 5.14.1 1
 (c++)"non-virtual thunk to QQmlInstantiator::componentComplete()@Qt_5_PRIVATE_API" 5.14.1 1
 (c++)"non-virtual thunk to QQmlInstantiator::~QQmlInstantiator()@Qt_5_PRIVATE_API" 5.14.1 1
 (c++)"non-virtual thunk to QQmlTableModel::classBegin()@Qt_5_PRIVATE_API" 5.14.1 1
 (c++)"non-virtual thunk to QQmlTableModel::componentComplete()@Qt_5_PRIVATE_API" 5.14.1 1
 (c++)"non-virtual thunk to QQmlTableModel::~QQmlTableModel()@Qt_5_PRIVATE_API" 5.14.1 1
