# SymbolsHelper-Confirmed: 5.0.2 amd64 armhf i386
libQt5Qml.so.5 libqt5qml5 #MINVER#
 _Z10qmlContextPK7QObject@Base 5.0.2
 _Z18QQml_colorProviderv@Base 5.0.2
 _Z18qmlExecuteDeferredP7QObject@Base 5.0.2
 _Z18qt_QJSValueV8ValueRK8QJSValue@Base 5.0.2
 _Z19QQml_setGuiProviderP15QQmlGuiProvider@Base 5.0.2
 _Z20qmlRegisterBaseTypesPKcii@Base 5.0.2
 _Z21QQml_setColorProviderP17QQmlColorProvider@Base 5.0.2
 _Z21qt_QJSEngineV8ContextP9QJSEngine@Base 5.0.2
 _Z25QQml_addValueTypeProviderP21QQmlValueTypeProvider@Base 5.0.2
 _Z27qmlAttachedPropertiesObjectPiPK7QObjectPK11QMetaObjectb@Base 5.0.2
 _Z27qmlRegisterTypeNotAvailablePKciiS0_RK7QString@Base 5.0.2
 _Z31qmlAttachedPropertiesObjectByIdiPK7QObjectb@Base 5.0.2
 _Z7qmlInfoPK7QObject@Base 5.0.2
 _Z7qmlInfoPK7QObjectRK5QListI9QQmlErrorE@Base 5.0.2
 _Z7qmlInfoPK7QObjectRK9QQmlError@Base 5.0.2
 _Z9qmlEnginePK7QObject@Base 5.0.2
 (optional=inline)_ZN10QByteArray7reserveEi@Base 5.0.2
 _ZN10QQmlBundle11addMetaLinkERK7QStringS2_RK10QByteArray@Base 5.0.2
 _ZN10QQmlBundle14isBundleHeaderEPKci@Base 5.0.2
 _ZN10QQmlBundle15findInsertPointEjPi@Base 5.0.2
 _ZN10QQmlBundle18bundleHeaderLengthEv@Base 5.0.2
 _ZN10QQmlBundle3addERK7QString@Base 5.0.2
 _ZN10QQmlBundle3addERK7QStringS2_@Base 5.0.2
 _ZN10QQmlBundle4openE6QFlagsIN9QIODevice12OpenModeFlagEE@Base 5.0.2
 _ZN10QQmlBundle5closeEv@Base 5.0.2
 _ZN10QQmlBundle6removeEPKNS_9FileEntryE@Base 5.0.2
 _ZN10QQmlBundleC1ERK7QString@Base 5.0.2
 _ZN10QQmlBundleC2ERK7QString@Base 5.0.2
 _ZN10QQmlBundleD1Ev@Base 5.0.2
 _ZN10QQmlBundleD2Ev@Base 5.0.2
 _ZN10QQmlEngine10setBaseUrlERK4QUrl@Base 5.0.2
 _ZN10QQmlEngine11qt_metacallEN11QMetaObject4CallEiPPv@Base 5.0.2
 _ZN10QQmlEngine11qt_metacastEPKc@Base 5.0.2
 _ZN10QQmlEngine12importPluginERK7QStringS2_P5QListI9QQmlErrorE@Base 5.0.2
 _ZN10QQmlEngine13addImportPathERK7QString@Base 5.0.2
 _ZN10QQmlEngine13addPluginPathERK7QString@Base 5.0.2
 _ZN10QQmlEngine14addNamedBundleERK7QStringS2_@Base 5.0.2
 _ZN10QQmlEngine15objectOwnershipEP7QObject@Base 5.0.2
 _ZN10QQmlEngine16addImageProviderERK7QStringP21QQmlImageProviderBase@Base 5.0.2
 _ZN10QQmlEngine16contextForObjectEPK7QObject@Base 5.0.2
 _ZN10QQmlEngine16staticMetaObjectE@Base 5.0.2
 _ZN10QQmlEngine17setImportPathListERK11QStringList@Base 5.0.2
 _ZN10QQmlEngine17setPluginPathListERK11QStringList@Base 5.0.2
 _ZN10QQmlEngine18setObjectOwnershipEP7QObjectNS_15ObjectOwnershipE@Base 5.0.2
 _ZN10QQmlEngine18trimComponentCacheEv@Base 5.0.2
 _ZN10QQmlEngine19clearComponentCacheEv@Base 5.0.2
 _ZN10QQmlEngine19removeImageProviderERK7QString@Base 5.0.2
 _ZN10QQmlEngine19setContextForObjectEP7QObjectP11QQmlContext@Base 5.0.2
 _ZN10QQmlEngine21setOfflineStoragePathERK7QString@Base 5.0.2
 _ZN10QQmlEngine23setIncubationControllerEP24QQmlIncubationController@Base 5.0.2
 _ZN10QQmlEngine30setNetworkAccessManagerFactoryEP31QQmlNetworkAccessManagerFactory@Base 5.0.2
 _ZN10QQmlEngine32setOutputWarningsToStandardErrorEb@Base 5.0.2
 _ZN10QQmlEngine4quitEv@Base 5.0.2
 _ZN10QQmlEngine5eventEP6QEvent@Base 5.0.2
 _ZN10QQmlEngine8warningsERK5QListI9QQmlErrorE@Base 5.0.2
 _ZN10QQmlEngineC1EP7QObject@Base 5.0.2
 _ZN10QQmlEngineC2EP7QObject@Base 5.0.2
 _ZN10QQmlEngineD0Ev@Base 5.0.2
 _ZN10QQmlEngineD1Ev@Base 5.0.2
 _ZN10QQmlEngineD2Ev@Base 5.0.2
 _ZN10QQmlScript6Parser14extractPragmasER7QString@Base 5.0.2
 _ZN10QQmlScript6Parser15extractMetaDataER7QStringP9QQmlError@Base 5.0.2
 _ZN10QQmlScript6Parser18findOrCreateTypeIdERK7QStringPNS_6ObjectE@Base 5.0.2
 _ZN10QQmlScript6Parser5clearEv@Base 5.0.2
 _ZN10QQmlScript6Parser5parseERK7QStringRK10QByteArrayRK4QUrlS3_@Base 5.0.2
 _ZN10QQmlScript6Parser7setTreeEPNS_6ObjectE@Base 5.0.2
 _ZN10QQmlScript6ParserC1Ev@Base 5.0.2
 _ZN10QQmlScript6ParserC2Ev@Base 5.0.2
 _ZN10QQmlScript6ParserD1Ev@Base 5.0.2
 _ZN10QQmlScript6ParserD2Ev@Base 5.0.2
 _ZN10QQmlScript7VariantC1EPN6QQmlJS3AST13StringLiteralE@Base 5.0.2
 _ZN10QQmlScript7VariantC1ERK10QStringRefPN6QQmlJS3AST4NodeE@Base 5.0.2
 _ZN10QQmlScript7VariantC1ERKS0_@Base 5.0.2
 _ZN10QQmlScript7VariantC1Eb@Base 5.0.2
 _ZN10QQmlScript7VariantC1EdRK10QStringRef@Base 5.0.2
 _ZN10QQmlScript7VariantC1Ev@Base 5.0.2
 _ZN10QQmlScript7VariantC2EPN6QQmlJS3AST13StringLiteralE@Base 5.0.2
 _ZN10QQmlScript7VariantC2ERK10QStringRefPN6QQmlJS3AST4NodeE@Base 5.0.2
 _ZN10QQmlScript7VariantC2ERKS0_@Base 5.0.2
 _ZN10QQmlScript7VariantC2Eb@Base 5.0.2
 _ZN10QQmlScript7VariantC2EdRK10QStringRef@Base 5.0.2
 _ZN10QQmlScript7VariantC2Ev@Base 5.0.2
 _ZN10QQmlScript7VariantaSERKS0_@Base 5.0.2
 _ZN11QQmlBinding10expressionEPK19QQmlAbstractBinding@Base 5.0.2
 _ZN11QQmlBinding10setEnabledEP19QQmlAbstractBindingb6QFlagsIN19QQmlPropertyPrivate9WriteFlagEE@Base 5.0.2
 _ZN11QQmlBinding10setEnabledEb6QFlagsIN19QQmlPropertyPrivate9WriteFlagEE@Base 5.0.2
 _ZN11QQmlBinding13createBindingEiP7QObjectP11QQmlContextRK7QStringt@Base 5.0.2
 _ZN11QQmlBinding13propertyIndexEPK19QQmlAbstractBinding@Base 5.0.2
 _ZN11QQmlBinding15retargetBindingEP19QQmlAbstractBindingP7QObjecti@Base 5.0.2
 _ZN11QQmlBinding15retargetBindingEP7QObjecti@Base 5.0.2
 _ZN11QQmlBinding16setEvaluateFlagsE6QFlagsINS_12EvaluateFlagEE@Base 5.0.2
 _ZN11QQmlBinding17expressionChangedEP24QQmlJavaScriptExpression@Base 5.0.2
 _ZN11QQmlBinding20expressionIdentifierEP24QQmlJavaScriptExpression@Base 5.0.2
 _ZN11QQmlBinding23setNotifyOnValueChangedEb@Base 5.0.2
 _ZN11QQmlBinding6objectEPK19QQmlAbstractBinding@Base 5.0.2
 _ZN11QQmlBinding6updateE6QFlagsIN19QQmlPropertyPrivate9WriteFlagEE@Base 5.0.2
 _ZN11QQmlBinding6updateEP19QQmlAbstractBinding6QFlagsIN19QQmlPropertyPrivate9WriteFlagEE@Base 5.0.2
 _ZN11QQmlBinding7InvalidE@Base 5.0.2
 _ZN11QQmlBinding7refreshEv@Base 5.0.2
 _ZN11QQmlBinding8evaluateEv@Base 5.0.2
 _ZN11QQmlBinding9setTargetEP7QObjectRK16QQmlPropertyDataP15QQmlContextData@Base 5.0.2
 _ZN11QQmlBinding9setTargetERK12QQmlProperty@Base 5.0.2
 _ZN11QQmlBindingC1EPvP7QObjectP15QQmlContextDataRK7QStringtt@Base 5.0.2
 _ZN11QQmlBindingC1ERK16QQmlScriptStringP7QObjectP11QQmlContext@Base 5.0.2
 _ZN11QQmlBindingC1ERK7QStringP7QObjectP11QQmlContext@Base 5.0.2
 _ZN11QQmlBindingC1ERK7QStringP7QObjectP15QQmlContextData@Base 5.0.2
 _ZN11QQmlBindingC1ERK7QStringbP7QObjectP15QQmlContextDataS2_tt@Base 5.0.2
 _ZN11QQmlBindingC2EPvP7QObjectP15QQmlContextDataRK7QStringtt@Base 5.0.2
 _ZN11QQmlBindingC2ERK16QQmlScriptStringP7QObjectP11QQmlContext@Base 5.0.2
 _ZN11QQmlBindingC2ERK7QStringP7QObjectP11QQmlContext@Base 5.0.2
 _ZN11QQmlBindingC2ERK7QStringP7QObjectP15QQmlContextData@Base 5.0.2
 _ZN11QQmlBindingC2ERK7QStringbP7QObjectP15QQmlContextDataS2_tt@Base 5.0.2
 _ZN11QQmlBindingD0Ev@Base 5.0.2
 _ZN11QQmlBindingD1Ev@Base 5.0.2
 _ZN11QQmlBindingD2Ev@Base 5.0.2
 _ZN11QQmlCleanup11addToEngineEP10QQmlEngine@Base 5.0.2
 _ZN11QQmlCleanupC1EP10QQmlEngine@Base 5.0.2
 _ZN11QQmlCleanupC1Ev@Base 5.0.2
 _ZN11QQmlCleanupC2EP10QQmlEngine@Base 5.0.2
 _ZN11QQmlCleanupC2Ev@Base 5.0.2
 _ZN11QQmlCleanupD0Ev@Base 5.0.2
 _ZN11QQmlCleanupD1Ev@Base 5.0.2
 _ZN11QQmlCleanupD2Ev@Base 5.0.2
 _ZN11QQmlContext10setBaseUrlERK4QUrl@Base 5.0.2
 _ZN11QQmlContext11qt_metacallEN11QMetaObject4CallEiPPv@Base 5.0.2
 _ZN11QQmlContext11qt_metacastEPKc@Base 5.0.2
 _ZN11QQmlContext11resolvedUrlERK4QUrl@Base 5.0.2
 _ZN11QQmlContext16setContextObjectEP7QObject@Base 5.0.2
 _ZN11QQmlContext16staticMetaObjectE@Base 5.0.2
 _ZN11QQmlContext18setContextPropertyERK7QStringP7QObject@Base 5.0.2
 _ZN11QQmlContext18setContextPropertyERK7QStringRK8QVariant@Base 5.0.2
 _ZN11QQmlContextC1EP10QQmlEngineP7QObject@Base 5.0.2
 _ZN11QQmlContextC1EP10QQmlEngineb@Base 5.0.2
 _ZN11QQmlContextC1EP15QQmlContextData@Base 5.0.2
 _ZN11QQmlContextC1EPS_P7QObject@Base 5.0.2
 _ZN11QQmlContextC2EP10QQmlEngineP7QObject@Base 5.0.2
 _ZN11QQmlContextC2EP10QQmlEngineb@Base 5.0.2
 _ZN11QQmlContextC2EP15QQmlContextData@Base 5.0.2
 _ZN11QQmlContextC2EPS_P7QObject@Base 5.0.2
 _ZN11QQmlContextD0Ev@Base 5.0.2
 _ZN11QQmlContextD1Ev@Base 5.0.2
 _ZN11QQmlContextD2Ev@Base 5.0.2
 _ZN11QQmlImports10setBaseUrlERK4QUrlRK7QString@Base 5.0.2
 _ZN11QQmlImports12locateQmldirEP18QQmlImportDatabaseRK7QStringiiPS2_S5_@Base 5.0.2
 _ZN11QQmlImports13addFileImportEP18QQmlImportDatabaseRK7QStringS4_iibP5QListI9QQmlErrorE@Base 5.0.2
 _ZN11QQmlImports16addLibraryImportEP18QQmlImportDatabaseRK7QStringS4_iiS4_S4_bP5QListI9QQmlErrorE@Base 5.0.2
 _ZN11QQmlImports17addImplicitImportEP18QQmlImportDatabaseP5QListI9QQmlErrorE@Base 5.0.2
 _ZN11QQmlImports18completeQmldirPathERK7QStringS2_iiNS_13ImportVersionE@Base 5.0.2
 _ZN11QQmlImports19updateQmldirContentEP18QQmlImportDatabaseRK7QStringS4_S4_S4_P5QListI9QQmlErrorE@Base 5.0.2
 _ZN11QQmlImports7isLocalERK4QUrl@Base 5.0.2
 _ZN11QQmlImports7isLocalERK7QString@Base 5.0.2
 _ZN11QQmlImportsC1EP14QQmlTypeLoader@Base 5.0.2
 _ZN11QQmlImportsC1ERKS_@Base 5.0.2
 _ZN11QQmlImportsC2EP14QQmlTypeLoader@Base 5.0.2
 _ZN11QQmlImportsC2ERKS_@Base 5.0.2
 _ZN11QQmlImportsD1Ev@Base 5.0.2
 _ZN11QQmlImportsD2Ev@Base 5.0.2
 _ZN11QQmlImportsaSERKS_@Base 5.0.2
 _ZN11QQmlPrivate11qmlregisterENS_16RegistrationTypeEPv@Base 5.0.2
 _ZN11QQmlPrivate30qdeclarativeelement_destructorEP7QObject@Base 5.0.2
 _ZN12QQmlDataBlob12networkErrorEN13QNetworkReply12NetworkErrorE@Base 5.0.2
 _ZN12QQmlDataBlob13addDependencyEPS_@Base 5.0.2
 _ZN12QQmlDataBlob14notifyCompleteEPS_@Base 5.0.2
 _ZN12QQmlDataBlob15dependencyErrorEPS_@Base 5.0.2
 _ZN12QQmlDataBlob18dependencyCompleteEPS_@Base 5.0.2
 _ZN12QQmlDataBlob19allDependenciesDoneEv@Base 5.0.2
 _ZN12QQmlDataBlob19cancelAllWaitingForEv@Base 5.0.2
 _ZN12QQmlDataBlob20notifyAllWaitingOnMeEv@Base 5.0.2
 (subst)_ZN12QQmlDataBlob23downloadProgressChangedE{qreal}@Base 5.0.2
 _ZN12QQmlDataBlob4doneEv@Base 5.0.2
 _ZN12QQmlDataBlob7tryDoneEv@Base 5.0.2
 _ZN12QQmlDataBlob8setErrorERK5QListI9QQmlErrorE@Base 5.0.2
 _ZN12QQmlDataBlob8setErrorERK9QQmlError@Base 5.0.2
 _ZN12QQmlDataBlob9completedEv@Base 5.0.2
 _ZN12QQmlDataBlobC1ERK4QUrlNS_4TypeE@Base 5.0.2
 _ZN12QQmlDataBlobC2ERK4QUrlNS_4TypeE@Base 5.0.2
 _ZN12QQmlDataBlobD0Ev@Base 5.0.2
 _ZN12QQmlDataBlobD1Ev@Base 5.0.2
 _ZN12QQmlDataBlobD2Ev@Base 5.0.2
 _ZN12QQmlMetaType10typeModuleERK7QStringi@Base 5.0.2
 _ZN12QQmlMetaType11isAnyModuleERK7QString@Base 5.0.2
 _ZN12QQmlMetaType11isInterfaceEi@Base 5.0.2
 _ZN12QQmlMetaType12interfaceIIdEi@Base 5.0.2
 _ZN12QQmlMetaType12qmlTypeNamesEv@Base 5.0.2
 _ZN12QQmlMetaType12typeCategoryEi@Base 5.0.2
 _ZN12QQmlMetaType13defaultMethodEP7QObject@Base 5.0.2
 _ZN12QQmlMetaType13defaultMethodEPK11QMetaObject@Base 5.0.2
 _ZN12QQmlMetaType15defaultPropertyEP7QObject@Base 5.0.2
 _ZN12QQmlMetaType15defaultPropertyEPK11QMetaObject@Base 5.0.2
 _ZN12QQmlMetaType15parentFunctionsEv@Base 5.0.2
 _ZN12QQmlMetaType16protectNamespaceERK7QString@Base 5.0.2
 _ZN12QQmlMetaType17qmlSingletonTypesEv@Base 5.0.2
 _ZN12QQmlMetaType20typeRegistrationLockEv@Base 5.0.2
 _ZN12QQmlMetaType21customStringConverterEi@Base 5.0.2
 _ZN12QQmlMetaType23QQuickAnchorLineCompareEPKvS1_@Base 5.0.2
 _ZN12QQmlMetaType24attachedPropertiesFuncIdEPK11QMetaObject@Base 5.0.2
 _ZN12QQmlMetaType24typeRegistrationFailuresEv@Base 5.0.2
 _ZN12QQmlMetaType25anchorLineCompareFunctionE@Base 5.0.2
 _ZN12QQmlMetaType26QQuickAnchorLineMetaTypeIdEv@Base 5.0.2
 _ZN12QQmlMetaType26attachedPropertiesFuncByIdEi@Base 5.0.2
 _ZN12QQmlMetaType28setTypeRegistrationNamespaceERK7QString@Base 5.0.2
 _ZN12QQmlMetaType29registerCustomStringConverterEiPF8QVariantRK7QStringE@Base 5.0.2
 _ZN12QQmlMetaType30namespaceContainsRegistrationsERK7QString@Base 5.0.2
 _ZN12QQmlMetaType34setQQuickAnchorLineCompareFunctionEPFbPKvS1_E@Base 5.0.2
 _ZN12QQmlMetaType6isListEi@Base 5.0.2
 _ZN12QQmlMetaType7qmlTypeEPK11QMetaObject@Base 5.0.2
 _ZN12QQmlMetaType7qmlTypeEPK11QMetaObjectRK16QHashedStringRefii@Base 5.0.2
 _ZN12QQmlMetaType7qmlTypeERK16QHashedStringRefS2_ii@Base 5.0.2
 _ZN12QQmlMetaType7qmlTypeERK7QStringii@Base 5.0.2
 _ZN12QQmlMetaType7qmlTypeEi@Base 5.0.2
 _ZN12QQmlMetaType8isModuleERK7QStringii@Base 5.0.2
 _ZN12QQmlMetaType8listTypeEi@Base 5.0.2
 _ZN12QQmlMetaType8qmlTypesEv@Base 5.0.2
 _ZN12QQmlMetaType9isQObjectEi@Base 5.0.2
 _ZN12QQmlMetaType9toQObjectERK8QVariantPb@Base 5.0.2
 _ZN12QQmlNotifier10emitNotifyEP20QQmlNotifierEndpointPPv@Base 5.0.2
 _ZN12QQmlProperty4readEPK7QObjectRK7QString@Base 5.0.2
 _ZN12QQmlProperty4readEPK7QObjectRK7QStringP10QQmlEngine@Base 5.0.2
 _ZN12QQmlProperty4readEPK7QObjectRK7QStringP11QQmlContext@Base 5.0.2
 _ZN12QQmlProperty5writeEP7QObjectRK7QStringRK8QVariant@Base 5.0.2
 _ZN12QQmlProperty5writeEP7QObjectRK7QStringRK8QVariantP10QQmlEngine@Base 5.0.2
 _ZN12QQmlProperty5writeEP7QObjectRK7QStringRK8QVariantP11QQmlContext@Base 5.0.2
 _ZN12QQmlPropertyC1EP7QObject@Base 5.0.2
 _ZN12QQmlPropertyC1EP7QObjectP10QQmlEngine@Base 5.0.2
 _ZN12QQmlPropertyC1EP7QObjectP11QQmlContext@Base 5.0.2
 _ZN12QQmlPropertyC1EP7QObjectRK7QString@Base 5.0.2
 _ZN12QQmlPropertyC1EP7QObjectRK7QStringP10QQmlEngine@Base 5.0.2
 _ZN12QQmlPropertyC1EP7QObjectRK7QStringP11QQmlContext@Base 5.0.2
 _ZN12QQmlPropertyC1ERKS_@Base 5.0.2
 _ZN12QQmlPropertyC1Ev@Base 5.0.2
 _ZN12QQmlPropertyC2EP7QObject@Base 5.0.2
 _ZN12QQmlPropertyC2EP7QObjectP10QQmlEngine@Base 5.0.2
 _ZN12QQmlPropertyC2EP7QObjectP11QQmlContext@Base 5.0.2
 _ZN12QQmlPropertyC2EP7QObjectRK7QString@Base 5.0.2
 _ZN12QQmlPropertyC2EP7QObjectRK7QStringP10QQmlEngine@Base 5.0.2
 _ZN12QQmlPropertyC2EP7QObjectRK7QStringP11QQmlContext@Base 5.0.2
 _ZN12QQmlPropertyC2ERKS_@Base 5.0.2
 _ZN12QQmlPropertyC2Ev@Base 5.0.2
 _ZN12QQmlPropertyD1Ev@Base 5.0.2
 _ZN12QQmlPropertyD2Ev@Base 5.0.2
 _ZN12QQmlPropertyaSERKS_@Base 5.0.2
 _ZN13QQmlComponent11beginCreateEP11QQmlContext@Base 5.0.2
 _ZN13QQmlComponent11qt_metacallEN11QMetaObject4CallEiPPv@Base 5.0.2
 _ZN13QQmlComponent11qt_metacastEPKc@Base 5.0.2
 _ZN13QQmlComponent12createObjectEP14QQmlV8Function@Base 5.0.2
 _ZN13QQmlComponent13statusChangedENS_6StatusE@Base 5.0.2
 _ZN13QQmlComponent14completeCreateEv@Base 5.0.2
 _ZN13QQmlComponent14incubateObjectEP14QQmlV8Function@Base 5.0.2
 (subst)_ZN13QQmlComponent15progressChangedE{qreal}@Base 5.0.2
 _ZN13QQmlComponent16staticMetaObjectE@Base 5.0.2
 _ZN13QQmlComponent21qmlAttachedPropertiesEP7QObject@Base 5.0.2
 _ZN13QQmlComponent6createEP11QQmlContext@Base 5.0.2
 _ZN13QQmlComponent6createER13QQmlIncubatorP11QQmlContextS3_@Base 5.0.2
 _ZN13QQmlComponent7loadUrlERK4QUrl@Base 5.0.2
 _ZN13QQmlComponent7loadUrlERK4QUrlNS_15CompilationModeE@Base 5.0.2
 _ZN13QQmlComponent7setDataERK10QByteArrayRK4QUrl@Base 5.0.2
 _ZN13QQmlComponentC1EP10QQmlEngineP16QQmlCompiledDataiP7QObject@Base 5.0.2
 _ZN13QQmlComponentC1EP10QQmlEngineP7QObject@Base 5.0.2
 _ZN13QQmlComponentC1EP10QQmlEngineRK4QUrlNS_15CompilationModeEP7QObject@Base 5.0.2
 _ZN13QQmlComponentC1EP10QQmlEngineRK4QUrlP7QObject@Base 5.0.2
 _ZN13QQmlComponentC1EP10QQmlEngineRK7QStringNS_15CompilationModeEP7QObject@Base 5.0.2
 _ZN13QQmlComponentC1EP10QQmlEngineRK7QStringP7QObject@Base 5.0.2
 _ZN13QQmlComponentC1EP7QObject@Base 5.0.2
 _ZN13QQmlComponentC1ER20QQmlComponentPrivateP7QObject@Base 5.0.2
 _ZN13QQmlComponentC2EP10QQmlEngineP16QQmlCompiledDataiP7QObject@Base 5.0.2
 _ZN13QQmlComponentC2EP10QQmlEngineP7QObject@Base 5.0.2
 _ZN13QQmlComponentC2EP10QQmlEngineRK4QUrlNS_15CompilationModeEP7QObject@Base 5.0.2
 _ZN13QQmlComponentC2EP10QQmlEngineRK4QUrlP7QObject@Base 5.0.2
 _ZN13QQmlComponentC2EP10QQmlEngineRK7QStringNS_15CompilationModeEP7QObject@Base 5.0.2
 _ZN13QQmlComponentC2EP10QQmlEngineRK7QStringP7QObject@Base 5.0.2
 _ZN13QQmlComponentC2EP7QObject@Base 5.0.2
 _ZN13QQmlComponentC2ER20QQmlComponentPrivateP7QObject@Base 5.0.2
 _ZN13QQmlComponentD0Ev@Base 5.0.2
 _ZN13QQmlComponentD1Ev@Base 5.0.2
 _ZN13QQmlComponentD2Ev@Base 5.0.2
 _ZN13QQmlIncubator13statusChangedENS_6StatusE@Base 5.0.2
 _ZN13QQmlIncubator15forceCompletionEv@Base 5.0.2
 _ZN13QQmlIncubator15setInitialStateEP7QObject@Base 5.0.2
 _ZN13QQmlIncubator5clearEv@Base 5.0.2
 _ZN13QQmlIncubatorC1ENS_14IncubationModeE@Base 5.0.2
 _ZN13QQmlIncubatorC2ENS_14IncubationModeE@Base 5.0.2
 _ZN13QQmlIncubatorD0Ev@Base 5.0.2
 _ZN13QQmlIncubatorD1Ev@Base 5.0.2
 _ZN13QQmlIncubatorD2Ev@Base 5.0.2
 _ZN13QQmlValueType11qt_metacallEN11QMetaObject4CallEiPPv@Base 5.0.2
 _ZN13QQmlValueType11qt_metacastEPKc@Base 5.0.2
 _ZN13QQmlValueType16staticMetaObjectE@Base 5.0.2
 _ZN13QQmlValueTypeC1EiP7QObject@Base 5.0.2
 _ZN13QQmlValueTypeC2EiP7QObject@Base 5.0.2
 _ZN13QQmlValueTypeD0Ev@Base 5.0.2
 _ZN13QQmlValueTypeD1Ev@Base 5.0.2
 _ZN13QQmlValueTypeD2Ev@Base 5.0.2
 _ZN14QQmlExpression10clearErrorEv@Base 5.0.2
 _ZN14QQmlExpression11qt_metacallEN11QMetaObject4CallEiPPv@Base 5.0.2
 _ZN14QQmlExpression11qt_metacastEPKc@Base 5.0.2
 _ZN14QQmlExpression12valueChangedEv@Base 5.0.2
 _ZN14QQmlExpression13setExpressionERK7QString@Base 5.0.2
 _ZN14QQmlExpression16staticMetaObjectE@Base 5.0.2
 _ZN14QQmlExpression17setSourceLocationERK7QStringii@Base 5.0.2
 _ZN14QQmlExpression23setNotifyOnValueChangedEb@Base 5.0.2
 _ZN14QQmlExpression8evaluateEPb@Base 5.0.2
 _ZN14QQmlExpressionC1EP11QQmlContextP7QObjectRK7QStringS3_@Base 5.0.2
 _ZN14QQmlExpressionC1EP15QQmlContextDataP7QObjectRK10QByteArraybRK7QStringiiR21QQmlExpressionPrivate@Base 5.0.2
 _ZN14QQmlExpressionC1EP15QQmlContextDataP7QObjectRK7QString@Base 5.0.2
 _ZN14QQmlExpressionC1EP15QQmlContextDataP7QObjectRK7QStringR21QQmlExpressionPrivate@Base 5.0.2
 _ZN14QQmlExpressionC1EP15QQmlContextDataP7QObjectRK7QStringbS6_iiR21QQmlExpressionPrivate@Base 5.0.2
 _ZN14QQmlExpressionC1ERK16QQmlScriptStringP11QQmlContextP7QObjectS6_@Base 5.0.2
 _ZN14QQmlExpressionC1Ev@Base 5.0.2
 _ZN14QQmlExpressionC2EP11QQmlContextP7QObjectRK7QStringS3_@Base 5.0.2
 _ZN14QQmlExpressionC2EP15QQmlContextDataP7QObjectRK10QByteArraybRK7QStringiiR21QQmlExpressionPrivate@Base 5.0.2
 _ZN14QQmlExpressionC2EP15QQmlContextDataP7QObjectRK7QString@Base 5.0.2
 _ZN14QQmlExpressionC2EP15QQmlContextDataP7QObjectRK7QStringR21QQmlExpressionPrivate@Base 5.0.2
 _ZN14QQmlExpressionC2EP15QQmlContextDataP7QObjectRK7QStringbS6_iiR21QQmlExpressionPrivate@Base 5.0.2
 _ZN14QQmlExpressionC2ERK16QQmlScriptStringP11QQmlContextP7QObjectS6_@Base 5.0.2
 _ZN14QQmlExpressionC2Ev@Base 5.0.2
 _ZN14QQmlExpressionD0Ev@Base 5.0.2
 _ZN14QQmlExpressionD1Ev@Base 5.0.2
 _ZN14QQmlExpressionD2Ev@Base 5.0.2
 _ZN14QQmlMetaObject10canConvertERKS_S1_@Base 5.0.2
 _ZN14QQmlTypeLoader4Blob11fetchQmldirERK4QUrlPKN10QQmlScript6ImportEiP5QListI9QQmlErrorE@Base 5.0.2
 _ZN14QQmlTypeLoader4Blob12updateQmldirEP14QQmlQmldirDataPKN10QQmlScript6ImportEP5QListI9QQmlErrorE@Base 5.0.2
 _ZN14QQmlTypeLoader4Blob15dependencyErrorEP12QQmlDataBlob@Base 5.0.2
 _ZN14QQmlTypeLoader4Blob18dependencyCompleteEP12QQmlDataBlob@Base 5.0.2
 _ZN14QQmlTypeLoader4Blob19qmldirDataAvailableEP14QQmlQmldirDataP5QListI9QQmlErrorE@Base 5.0.2
 _ZN14QQmlTypeLoader4Blob9addImportERKN10QQmlScript6ImportEP5QListI9QQmlErrorE@Base 5.0.2
 _ZN14QQmlTypeLoader4BlobC1ERK4QUrlN12QQmlDataBlob4TypeEPS_@Base 5.0.2
 _ZN14QQmlTypeLoader4BlobC2ERK4QUrlN12QQmlDataBlob4TypeEPS_@Base 5.0.2
 _ZN14QQmlTypeLoader4BlobD0Ev@Base 5.0.2
 _ZN14QQmlTypeLoader4BlobD1Ev@Base 5.0.2
 _ZN14QQmlTypeLoader4BlobD2Ev@Base 5.0.2
 _ZN15QQmlBoundSignal13setExpressionEP25QQmlBoundSignalExpression@Base 5.0.2
 _ZN15QQmlBoundSignal14takeExpressionEP25QQmlBoundSignalExpression@Base 5.0.2
 _ZN15QQmlBoundSignalC1EP7QObjectiS1_P10QQmlEngine@Base 5.0.2
 _ZN15QQmlBoundSignalC2EP7QObjectiS1_P10QQmlEngine@Base 5.0.2
 _ZN15QQmlBoundSignalD0Ev@Base 5.0.2
 _ZN15QQmlBoundSignalD1Ev@Base 5.0.2
 _ZN15QQmlBoundSignalD2Ev@Base 5.0.2
 _ZN15QQmlContextData10invalidateEv@Base 5.0.2
 _ZN15QQmlContextData11resolvedUrlERK4QUrl@Base 5.0.2
 _ZN15QQmlContextData12ContextGuardD0Ev@Base 5.0.2
 _ZN15QQmlContextData12ContextGuardD1Ev@Base 5.0.2
 _ZN15QQmlContextData12ContextGuardD2Ev@Base 5.0.2
 _ZN15QQmlContextData12clearContextEv@Base 5.0.2
 _ZN15QQmlContextData13asQQmlContextEv@Base 5.0.2
 _ZN15QQmlContextData13setIdPropertyEiP7QObject@Base 5.0.2
 _ZN15QQmlContextData15emitDestructionEv@Base 5.0.2
 _ZN15QQmlContextData17setIdPropertyDataEP16QQmlIntegerCache@Base 5.0.2
 _ZN15QQmlContextData18refreshExpressionsEv@Base 5.0.2
 _ZN15QQmlContextData20asQQmlContextPrivateEv@Base 5.0.2
 _ZN15QQmlContextData27refreshExpressionsRecursiveEP22QQmlAbstractExpression@Base 5.0.2
 _ZN15QQmlContextData27refreshExpressionsRecursiveEb@Base 5.0.2
 _ZN15QQmlContextData7destroyEv@Base 5.0.2
 _ZN15QQmlContextData9addObjectEP7QObject@Base 5.0.2
 _ZN15QQmlContextData9setParentEPS_b@Base 5.0.2
 _ZN15QQmlContextDataC1EP11QQmlContext@Base 5.0.2
 _ZN15QQmlContextDataC1Ev@Base 5.0.2
 _ZN15QQmlContextDataC2EP11QQmlContext@Base 5.0.2
 _ZN15QQmlContextDataC2Ev@Base 5.0.2
 _ZN15QQmlDebugServer10addServiceEP16QQmlDebugService@Base 5.0.2
 _ZN15QQmlDebugServer11qt_metacallEN11QMetaObject4CallEiPPv@Base 5.0.2
 _ZN15QQmlDebugServer11qt_metacastEPKc@Base 5.0.2
 _ZN15QQmlDebugServer12sendMessagesEP16QQmlDebugServiceRK5QListI10QByteArrayE@Base 5.0.2
 _ZN15QQmlDebugServer13removeServiceEP16QQmlDebugService@Base 5.0.2
 _ZN15QQmlDebugServer14receiveMessageERK10QByteArray@Base 5.0.2
 _ZN15QQmlDebugServer16staticMetaObjectE@Base 5.0.2
 _ZN15QQmlDebugServer19s_dataStreamVersionE@Base 5.0.2
 _ZN15QQmlDebugServer8instanceEv@Base 5.0.2
 _ZN15QQmlDebugServerC1Ev@Base 5.0.2
 _ZN15QQmlDebugServerC2Ev@Base 5.0.2
 _ZN15QQmlDebugServerD0Ev@Base 5.0.2
 _ZN15QQmlDebugServerD1Ev@Base 5.0.2
 _ZN15QQmlDebugServerD2Ev@Base 5.0.2
 _ZN15QQmlDebugStreamC1EP10QByteArray6QFlagsIN9QIODevice12OpenModeFlagEE@Base 5.0.2
 _ZN15QQmlDebugStreamC1EP9QIODevice@Base 5.0.2
 _ZN15QQmlDebugStreamC1ERK10QByteArray@Base 5.0.2
 _ZN15QQmlDebugStreamC1Ev@Base 5.0.2
 _ZN15QQmlDebugStreamC2EP10QByteArray6QFlagsIN9QIODevice12OpenModeFlagEE@Base 5.0.2
 _ZN15QQmlDebugStreamC2EP9QIODevice@Base 5.0.2
 _ZN15QQmlDebugStreamC2ERK10QByteArray@Base 5.0.2
 _ZN15QQmlDebugStreamC2Ev@Base 5.0.2
 _ZN15QQmlGuiProvider11applicationEP7QObject@Base 5.0.2
 _ZN15QQmlGuiProvider11inputMethodEv@Base 5.0.2
 _ZN15QQmlGuiProvider12fontFamiliesEv@Base 5.0.2
 _ZN15QQmlGuiProvider17openUrlExternallyER4QUrl@Base 5.0.2
 _ZN15QQmlGuiProviderD0Ev@Base 5.0.2
 _ZN15QQmlGuiProviderD1Ev@Base 5.0.2
 _ZN15QQmlGuiProviderD2Ev@Base 5.0.2
 _ZN15QQmlMemoryScopeC1EPKc@Base 5.0.2
 _ZN15QQmlMemoryScopeC1ERK4QUrl@Base 5.0.2
 _ZN15QQmlMemoryScopeC2EPKc@Base 5.0.2
 _ZN15QQmlMemoryScopeC2ERK4QUrl@Base 5.0.2
 _ZN15QQmlMemoryScopeD1Ev@Base 5.0.2
 _ZN15QQmlMemoryScopeD2Ev@Base 5.0.2
 _ZN15QQmlPropertyMap11qt_metacallEN11QMetaObject4CallEiPPv@Base 5.0.2
 _ZN15QQmlPropertyMap11qt_metacastEPKc@Base 5.0.2
 _ZN15QQmlPropertyMap11updateValueERK7QStringRK8QVariant@Base 5.0.2
 _ZN15QQmlPropertyMap12valueChangedERK7QStringRK8QVariant@Base 5.0.2
 _ZN15QQmlPropertyMap15allocatePrivateEv@Base 5.0.2
 _ZN15QQmlPropertyMap16staticMetaObjectE@Base 5.0.2
 _ZN15QQmlPropertyMap4initEPK11QMetaObject@Base 5.0.2
 _ZN15QQmlPropertyMap5clearERK7QString@Base 5.0.2
 _ZN15QQmlPropertyMap6insertERK7QStringRK8QVariant@Base 5.0.2
 _ZN15QQmlPropertyMapC1EP7QObject@Base 5.0.2
 _ZN15QQmlPropertyMapC2EP7QObject@Base 5.0.2
 _ZN15QQmlPropertyMapD0Ev@Base 5.0.2
 _ZN15QQmlPropertyMapD1Ev@Base 5.0.2
 _ZN15QQmlPropertyMapD2Ev@Base 5.0.2
 _ZN15QQmlPropertyMapixERK7QString@Base 5.0.2
 _ZN15QQuickListModel11qt_metacallEN11QMetaObject4CallEiPPv@Base 5.0.2
 _ZN15QQuickListModel11qt_metacastEPKc@Base 5.0.2
 _ZN15QQuickListModel11setPropertyEiRK7QStringRK8QVariant@Base 5.0.2
 _ZN15QQuickListModel12countChangedEv@Base 5.0.2
 _ZN15QQuickListModel14emitItemsMovedEiii@Base 5.0.2
 _ZN15QQuickListModel15createWithOwnerEPS_@Base 5.0.2
 _ZN15QQuickListModel15setDynamicRolesEb@Base 5.0.2
 _ZN15QQuickListModel16emitItemsChangedEiiRK7QVectorIiE@Base 5.0.2
 _ZN15QQuickListModel16emitItemsRemovedEii@Base 5.0.2
 _ZN15QQuickListModel16staticMetaObjectE@Base 5.0.2
 _ZN15QQuickListModel17emitItemsInsertedEii@Base 5.0.2
 _ZN15QQuickListModel3setEiRK12QQmlV8Handle@Base 5.0.2
 _ZN15QQuickListModel4moveEiii@Base 5.0.2
 _ZN15QQuickListModel4syncEPS_S0_P5QHashIiS0_E@Base 5.0.2
 _ZN15QQuickListModel4syncEv@Base 5.0.2
 _ZN15QQuickListModel5agentEv@Base 5.0.2
 _ZN15QQuickListModel5clearEv@Base 5.0.2
 _ZN15QQuickListModel6appendEP14QQmlV8Function@Base 5.0.2
 _ZN15QQuickListModel6insertEP14QQmlV8Function@Base 5.0.2
 _ZN15QQuickListModel6removeEP14QQmlV8Function@Base 5.0.2
 _ZN15QQuickListModelC1EP7QObject@Base 5.0.2
 _ZN15QQuickListModelC1EPKS_P9ListModelP9QV8EngineP7QObject@Base 5.0.2
 _ZN15QQuickListModelC1EPS_P26QQuickListModelWorkerAgent@Base 5.0.2
 _ZN15QQuickListModelC2EP7QObject@Base 5.0.2
 _ZN15QQuickListModelC2EPKS_P9ListModelP9QV8EngineP7QObject@Base 5.0.2
 _ZN15QQuickListModelC2EPS_P26QQuickListModelWorkerAgent@Base 5.0.2
 _ZN15QQuickListModelD0Ev@Base 5.0.2
 _ZN15QQuickListModelD1Ev@Base 5.0.2
 _ZN15QQuickListModelD2Ev@Base 5.0.2
 _ZN16QJSValueIterator4nextEv@Base 5.0.2
 _ZN16QJSValueIteratorC1ERK8QJSValue@Base 5.0.2
 _ZN16QJSValueIteratorC2ERK8QJSValue@Base 5.0.2
 _ZN16QJSValueIteratorD1Ev@Base 5.0.2
 _ZN16QJSValueIteratorD2Ev@Base 5.0.2
 _ZN16QJSValueIteratoraSER8QJSValue@Base 5.0.2
 _ZN16QQmlCustomParser11clearErrorsEv@Base 5.0.2
 _ZN16QQmlCustomParser14rewriteBindingERKN10QQmlScript7VariantERK7QString@Base 5.0.2
 _ZN16QQmlCustomParser20rewriteSignalHandlerERKN10QQmlScript7VariantERK7QString@Base 5.0.2
 _ZN16QQmlCustomParser5errorERK20QQmlCustomParserNodeRK7QString@Base 5.0.2
 _ZN16QQmlCustomParser5errorERK24QQmlCustomParserPropertyRK7QString@Base 5.0.2
 _ZN16QQmlCustomParser5errorERK7QString@Base 5.0.2
 _ZN16QQmlDebugService11idForObjectEP7QObject@Base 5.0.2
 _ZN16QQmlDebugService11objectForIdEi@Base 5.0.2
 _ZN16QQmlDebugService11qt_metacallEN11QMetaObject4CallEiPPv@Base 5.0.2
 _ZN16QQmlDebugService11qt_metacastEPKc@Base 5.0.2
 _ZN16QQmlDebugService11sendMessageERK10QByteArray@Base 5.0.2
 _ZN16QQmlDebugService12blockingModeEv@Base 5.0.2
 _ZN16QQmlDebugService12sendMessagesERK5QListI10QByteArrayE@Base 5.0.2
 _ZN16QQmlDebugService12stateChangedENS_5StateE@Base 5.0.2
 _ZN16QQmlDebugService14objectToStringEP7QObject@Base 5.0.2
 _ZN16QQmlDebugService15messageReceivedERK10QByteArray@Base 5.0.2
 _ZN16QQmlDebugService15registerServiceEv@Base 5.0.2
 _ZN16QQmlDebugService16staticMetaObjectE@Base 5.0.2
 _ZN16QQmlDebugService18hasDebuggingClientEv@Base 5.0.2
 _ZN16QQmlDebugService18isDebuggingEnabledEv@Base 5.0.2
 _ZN16QQmlDebugService20clearObjectsFromHashEv@Base 5.0.2
 _ZN16QQmlDebugService21objectForLocationInfoERK7QStringii@Base 5.0.2
 _ZN16QQmlDebugService21stateAboutToBeChangedENS_5StateE@Base 5.0.2
 _ZN16QQmlDebugService28removeInvalidObjectsFromHashEv@Base 5.0.2
 _ZN16QQmlDebugServiceC1ER23QQmlDebugServicePrivateRK7QStringfP7QObject@Base 5.0.2
 _ZN16QQmlDebugServiceC1ERK7QStringfP7QObject@Base 5.0.2
 _ZN16QQmlDebugServiceC2ER23QQmlDebugServicePrivateRK7QStringfP7QObject@Base 5.0.2
 _ZN16QQmlDebugServiceC2ERK7QStringfP7QObject@Base 5.0.2
 _ZN16QQmlDebugServiceD0Ev@Base 5.0.2
 _ZN16QQmlDebugServiceD1Ev@Base 5.0.2
 _ZN16QQmlDebugServiceD2Ev@Base 5.0.2
 _ZN16QQmlParserStatusC1Ev@Base 5.0.2
 _ZN16QQmlParserStatusC2Ev@Base 5.0.2
 _ZN16QQmlParserStatusD0Ev@Base 5.0.2
 _ZN16QQmlParserStatusD1Ev@Base 5.0.2
 _ZN16QQmlParserStatusD2Ev@Base 5.0.2
 _ZN16QQmlScriptStringC1ERK7QStringP11QQmlContextP7QObject@Base 5.0.2
 _ZN16QQmlScriptStringC1ERKS_@Base 5.0.2
 _ZN16QQmlScriptStringC1Ev@Base 5.0.2
 _ZN16QQmlScriptStringC2ERK7QStringP11QQmlContextP7QObject@Base 5.0.2
 _ZN16QQmlScriptStringC2ERKS_@Base 5.0.2
 _ZN16QQmlScriptStringC2Ev@Base 5.0.2
 _ZN16QQmlScriptStringD1Ev@Base 5.0.2
 _ZN16QQmlScriptStringD2Ev@Base 5.0.2
 _ZN16QQmlScriptStringaSERKS_@Base 5.0.2
 _ZN16QV8StringWrapper4initEv@Base 5.0.2
 _ZN16QV8StringWrapper7destroyEv@Base 5.0.2
 _ZN16QV8StringWrapper8toStringEN2v86HandleINS0_6StringEEE@Base 5.0.2
 _ZN16QV8StringWrapper8toStringERK7QString@Base 5.0.2
 _ZN16QV8StringWrapperC1Ev@Base 5.0.2
 _ZN16QV8StringWrapperC2Ev@Base 5.0.2
 _ZN16QV8StringWrapperD1Ev@Base 5.0.2
 _ZN16QV8StringWrapperD2Ev@Base 5.0.2
 _ZN17QQmlColorProvider14rgbaFromStringERK7QStringPb@Base 5.0.2
 _ZN17QQmlColorProvider15colorFromStringERK7QStringPb@Base 5.0.2
 _ZN17QQmlColorProvider4tintERK8QVariantS2_@Base 5.0.2
 (subst)_ZN17QQmlColorProvider6darkerERK8QVariant{qreal}@Base 5.0.2
 (subst)_ZN17QQmlColorProvider7lighterERK8QVariant{qreal}@Base 5.0.2
 _ZN17QQmlColorProvider8fromHslFEdddd@Base 5.0.2
 _ZN17QQmlColorProvider8fromRgbFEdddd@Base 5.0.2
 _ZN17QQmlColorProviderD0Ev@Base 5.0.2
 _ZN17QQmlColorProviderD1Ev@Base 5.0.2
 _ZN17QQmlColorProviderD2Ev@Base 5.0.2
 _ZN17QQmlEnginePrivate11createCacheEP8QQmlTypeiR9QQmlError@Base 5.0.2
 _ZN17QQmlEnginePrivate11createCacheEPK11QMetaObject@Base 5.0.2
 _ZN17QQmlEnginePrivate12designerModeEv@Base 5.0.2
 _ZN17QQmlEnginePrivate14s_designerModeE@Base 5.0.2
 _ZN17QQmlEnginePrivate17registerBaseTypesEPKcii@Base 5.0.2
 _ZN17QQmlEnginePrivate20activateDesignerModeEv@Base 5.0.2
 _ZN17QQmlEnginePrivate20defineQtQuick2ModuleEv@Base 5.0.2
 _ZN17QQmlEnginePrivate20propertyCacheForTypeEi@Base 5.0.2
 _ZN17QQmlEnginePrivate21getWorkerScriptEngineEv@Base 5.0.2
 _ZN17QQmlEnginePrivate21qml_debugging_enabledE@Base 5.0.2
 _ZN17QQmlEnginePrivate21registerCompositeTypeEP16QQmlCompiledData@Base 5.0.2
 _ZN17QQmlEnginePrivate21registerQtQuick2TypesEPKcii@Base 5.0.2
 _ZN17QQmlEnginePrivate22doDeleteInEngineThreadEv@Base 5.0.2
 _ZN17QQmlEnginePrivate23rawPropertyCacheForTypeEi@Base 5.0.2
 _ZN17QQmlEnginePrivate23unregisterCompositeTypeEP16QQmlCompiledData@Base 5.0.2
 _ZN17QQmlEnginePrivate24referenceScarceResourcesEv@Base 5.0.2
 _ZN17QQmlEnginePrivate24registerFinalizeCallbackEP7QObjecti@Base 5.0.2
 _ZN17QQmlEnginePrivate26dereferenceScarceResourcesEv@Base 5.0.2
 _ZN17QQmlEnginePrivate4initEv@Base 5.0.2
 _ZN17QQmlEnginePrivate7warningEP10QQmlEngineP16QQmlDelayedError@Base 5.0.2
 _ZN17QQmlEnginePrivate7warningEP10QQmlEngineRK5QListI9QQmlErrorE@Base 5.0.2
 _ZN17QQmlEnginePrivate7warningEP10QQmlEngineRK9QQmlError@Base 5.0.2
 _ZN17QQmlEnginePrivate7warningEP16QQmlDelayedError@Base 5.0.2
 _ZN17QQmlEnginePrivate7warningEPS_RK5QListI9QQmlErrorE@Base 5.0.2
 _ZN17QQmlEnginePrivate7warningEPS_RK9QQmlError@Base 5.0.2
 _ZN17QQmlEnginePrivate7warningERK5QListI9QQmlErrorE@Base 5.0.2
 _ZN17QQmlEnginePrivate7warningERK9QQmlError@Base 5.0.2
 _ZN17QQmlEnginePrivate8incubateER13QQmlIncubatorP15QQmlContextData@Base 5.0.2
 _ZN17QQmlEnginePrivate8sendQuitEv@Base 5.0.2
 _ZN17QQmlEnginePrivate9isQObjectEi@Base 5.0.2
 _ZN17QQmlEnginePrivateC1EP10QQmlEngine@Base 5.0.2
 _ZN17QQmlEnginePrivateC2EP10QQmlEngine@Base 5.0.2
 _ZN17QQmlEnginePrivateD0Ev@Base 5.0.2
 _ZN17QQmlEnginePrivateD1Ev@Base 5.0.2
 _ZN17QQmlEnginePrivateD2Ev@Base 5.0.2
 _ZN17QQmlListReferenceC1EP7QObjectPKcP10QQmlEngine@Base 5.0.2
 _ZN17QQmlListReferenceC1ERKS_@Base 5.0.2
 _ZN17QQmlListReferenceC1Ev@Base 5.0.2
 _ZN17QQmlListReferenceC2EP7QObjectPKcP10QQmlEngine@Base 5.0.2
 _ZN17QQmlListReferenceC2ERKS_@Base 5.0.2
 _ZN17QQmlListReferenceC2Ev@Base 5.0.2
 _ZN17QQmlListReferenceD1Ev@Base 5.0.2
 _ZN17QQmlListReferenceD2Ev@Base 5.0.2
 _ZN17QQmlListReferenceaSERKS_@Base 5.0.2
 _ZN17QQmlPropertyCache10invalidateEP10QQmlEnginePK11QMetaObject@Base 5.0.2
 _ZN17QQmlPropertyCache10newQObjectEP7QObjectP9QV8Engine@Base 5.0.2
 _ZN17QQmlPropertyCache11updateRecurEP10QQmlEnginePK11QMetaObject@Base 5.0.2
 _ZN17QQmlPropertyCache12appendMethodERK17QHashedCStringRefjiRK5QListI10QByteArrayE@Base 5.0.2
 _ZN17QQmlPropertyCache12appendMethodERK7QStringjiRK5QListI10QByteArrayE@Base 5.0.2
 _ZN17QQmlPropertyCache12appendSignalERK17QHashedCStringRefjiPKiRK5QListI10QByteArrayE@Base 5.0.2
 _ZN17QQmlPropertyCache12appendSignalERK7QStringjiPKiRK5QListI10QByteArrayE@Base 5.0.2
 _ZN17QQmlPropertyCache13copyAndAppendEP10QQmlEnginePK11QMetaObjectN19QQmlPropertyRawData4FlagES6_S6_@Base 5.0.2
 _ZN17QQmlPropertyCache13copyAndAppendEP10QQmlEnginePK11QMetaObjectiN19QQmlPropertyRawData4FlagES6_S6_@Base 5.0.2
 _ZN17QQmlPropertyCache13originalCloneEP7QObjecti@Base 5.0.2
 _ZN17QQmlPropertyCache13originalCloneEi@Base 5.0.2
 _ZN17QQmlPropertyCache14appendPropertyERK17QHashedCStringRefjiii@Base 5.0.2
 _ZN17QQmlPropertyCache14appendPropertyERK7QStringjiii@Base 5.0.2
 _ZN17QQmlPropertyCache14copyAndReserveEP10QQmlEngineiii@Base 5.0.2
 _ZN17QQmlPropertyCache16createMetaObjectEv@Base 5.0.2
 _ZN17QQmlPropertyCache16methodReturnTypeEP7QObjectRK16QQmlPropertyDataP10QByteArray@Base 5.0.2
 _ZN17QQmlPropertyCache19isDynamicMetaObjectEPK11QMetaObject@Base 5.0.2
 _ZN17QQmlPropertyCache19toMetaObjectBuilderER18QMetaObjectBuilder@Base 5.0.2
 _ZN17QQmlPropertyCache20methodParameterTypesEP7QObjectiR15QVarLengthArrayIiLi9EEP10QByteArray@Base 5.0.2
 _ZN17QQmlPropertyCache21createArgumentsObjectEiRK5QListI10QByteArrayE@Base 5.0.2
 _ZN17QQmlPropertyCache26signalParameterStringForJSEiPiP7QString@Base 5.0.2
 _ZN17QQmlPropertyCache4copyEv@Base 5.0.2
 _ZN17QQmlPropertyCache5clearEv@Base 5.0.2
 _ZN17QQmlPropertyCache6appendEP10QQmlEnginePK11QMetaObjectiN19QQmlPropertyRawData4FlagES6_S6_@Base 5.0.2
 _ZN17QQmlPropertyCache6updateEP10QQmlEnginePK11QMetaObject@Base 5.0.2
 _ZN17QQmlPropertyCache7destroyEv@Base 5.0.2
 _ZN17QQmlPropertyCache8propertyEP10QQmlEngineP7QObjectRK15QHashedV8StringP15QQmlContextDataR16QQmlPropertyData@Base 5.0.2
 _ZN17QQmlPropertyCache8propertyEP10QQmlEngineP7QObjectRK7QStringP15QQmlContextDataR16QQmlPropertyData@Base 5.0.2
 _ZN17QQmlPropertyCache9setParentEPS_@Base 5.0.2
 _ZN17QQmlPropertyCacheC1EP10QQmlEngine@Base 5.0.2
 _ZN17QQmlPropertyCacheC1EP10QQmlEnginePK11QMetaObject@Base 5.0.2
 _ZN17QQmlPropertyCacheC2EP10QQmlEngine@Base 5.0.2
 _ZN17QQmlPropertyCacheC2EP10QQmlEnginePK11QMetaObject@Base 5.0.2
 _ZN17QQmlPropertyCacheD0Ev@Base 5.0.2
 _ZN17QQmlPropertyCacheD1Ev@Base 5.0.2
 _ZN17QQmlPropertyCacheD2Ev@Base 5.0.2
 _ZN17QQmlRectValueType11qt_metacallEN11QMetaObject4CallEiPPv@Base 5.0.2
 _ZN17QQmlRectValueType11qt_metacastEPKc@Base 5.0.2
 _ZN17QQmlRectValueType16staticMetaObjectE@Base 5.0.2
 _ZN17QQmlRectValueType4setXEi@Base 5.0.2
 _ZN17QQmlRectValueType4setYEi@Base 5.0.2
 _ZN17QQmlRectValueType8setWidthEi@Base 5.0.2
 _ZN17QQmlRectValueType9setHeightEi@Base 5.0.2
 _ZN17QQmlRectValueTypeC1EP7QObject@Base 5.0.2
 _ZN17QQmlRectValueTypeC2EP7QObject@Base 5.0.2
 _ZN17QQmlRectValueTypeD0Ev@Base 5.0.2
 _ZN17QQmlRectValueTypeD1Ev@Base 5.0.2
 _ZN17QQmlRectValueTypeD2Ev@Base 5.0.2
 _ZN17QQmlSizeValueType11qt_metacallEN11QMetaObject4CallEiPPv@Base 5.0.2
 _ZN17QQmlSizeValueType11qt_metacastEPKc@Base 5.0.2
 _ZN17QQmlSizeValueType16staticMetaObjectE@Base 5.0.2
 _ZN17QQmlSizeValueType8setWidthEi@Base 5.0.2
 _ZN17QQmlSizeValueType9setHeightEi@Base 5.0.2
 _ZN17QQmlSizeValueTypeC1EP7QObject@Base 5.0.2
 _ZN17QQmlSizeValueTypeC2EP7QObject@Base 5.0.2
 _ZN17QQmlSizeValueTypeD0Ev@Base 5.0.2
 _ZN17QQmlSizeValueTypeD1Ev@Base 5.0.2
 _ZN17QQmlSizeValueTypeD2Ev@Base 5.0.2
 _ZN17QQmlVMEMetaObject10list_clearEP16QQmlListPropertyI7QObjectE@Base 5.0.2
 _ZN17QQmlVMEMetaObject10list_countEP16QQmlListPropertyI7QObjectE@Base 5.0.2
 _ZN17QQmlVMEMetaObject11listChangedEi@Base 5.0.2
 _ZN17QQmlVMEMetaObject11list_appendEP16QQmlListPropertyI7QObjectEPS1_@Base 5.0.2
 _ZN17QQmlVMEMetaObject11vmePropertyEi@Base 5.0.2
 _ZN17QQmlVMEMetaObject12connectAliasEi@Base 5.0.2
 _ZN17QQmlVMEMetaObject12getForMethodEP7QObjecti@Base 5.0.2
 _ZN17QQmlVMEMetaObject12getForSignalEP7QObjecti@Base 5.0.2
 _ZN17QQmlVMEMetaObject12setVmeMethodEiN2v810PersistentINS0_8FunctionEEE@Base 5.0.2
 _ZN17QQmlVMEMetaObject13writePropertyEiRK8QVariant@Base 5.0.2
 _ZN17QQmlVMEMetaObject14getForPropertyEP7QObjecti@Base 5.0.2
 _ZN17QQmlVMEMetaObject14setVMEPropertyEiN2v86HandleINS0_5ValueEEE@Base 5.0.2
 _ZN17QQmlVMEMetaObject15readVarPropertyEi@Base 5.0.2
 _ZN17QQmlVMEMetaObject16writeVarPropertyEiN2v86HandleINS0_5ValueEEE@Base 5.0.2
 _ZN17QQmlVMEMetaObject18GcPrologueCallbackEPN13QV8GCCallback4NodeE@Base 5.0.2
 _ZN17QQmlVMEMetaObject18connectAliasSignalEib@Base 5.0.2
 _ZN17QQmlVMEMetaObject19registerInterceptorEiiP28QQmlPropertyValueInterceptor@Base 5.0.2
 _ZN17QQmlVMEMetaObject19toDynamicMetaObjectEP7QObject@Base 5.0.2
 _ZN17QQmlVMEMetaObject19vmeMethodLineNumberEi@Base 5.0.2
 _ZN17QQmlVMEMetaObject21readPropertyAsVariantEi@Base 5.0.2
 _ZN17QQmlVMEMetaObject34VarPropertiesWeakReferenceCallbackEN2v810PersistentINS0_5ValueEEEPv@Base 5.0.2
 _ZN17QQmlVMEMetaObject6methodEi@Base 5.0.2
 _ZN17QQmlVMEMetaObject7list_atEP16QQmlListPropertyI7QObjectEi@Base 5.0.2
 _ZN17QQmlVMEMetaObject8activateEP7QObjectiPPv@Base 5.0.2
 _ZN17QQmlVMEMetaObject8metaCallEN11QMetaObject4CallEiPPv@Base 5.0.2
 _ZN17QQmlVMEMetaObject9vmeMethodEi@Base 5.0.2
 _ZN17QQmlVMEMetaObjectC1EP7QObjectP17QQmlPropertyCachePK15QQmlVMEMetaData@Base 5.0.2
 _ZN17QQmlVMEMetaObjectC2EP7QObjectP17QQmlPropertyCachePK15QQmlVMEMetaData@Base 5.0.2
 _ZN17QQmlVMEMetaObjectD0Ev@Base 5.0.2
 _ZN17QQmlVMEMetaObjectD1Ev@Base 5.0.2
 _ZN17QQmlVMEMetaObjectD2Ev@Base 5.0.2
 _ZN17QV8ContextWrapper10NullGetterEN2v85LocalINS0_6StringEEERKNS0_12AccessorInfoE@Base 5.0.2
 _ZN17QV8ContextWrapper10NullSetterEN2v85LocalINS0_6StringEEENS1_INS0_5ValueEEERKNS0_12AccessorInfoE@Base 5.0.2
 _ZN17QV8ContextWrapper11setReadOnlyEN2v86HandleINS0_6ObjectEEEb@Base 5.0.2
 _ZN17QV8ContextWrapper13addSubContextEN2v86HandleINS0_6ObjectEEENS1_INS0_6ScriptEEEP15QQmlContextData@Base 5.0.2
 _ZN17QV8ContextWrapper14callingContextEv@Base 5.0.2
 _ZN17QV8ContextWrapper20takeContextOwnershipEN2v86HandleINS0_6ObjectEEE@Base 5.0.2
 _ZN17QV8ContextWrapper4initEP9QV8Engine@Base 5.0.2
 _ZN17QV8ContextWrapper6GetterEN2v85LocalINS0_6StringEEERKNS0_12AccessorInfoE@Base 5.0.2
 _ZN17QV8ContextWrapper6SetterEN2v85LocalINS0_6StringEEENS1_INS0_5ValueEEERKNS0_12AccessorInfoE@Base 5.0.2
 _ZN17QV8ContextWrapper7contextEN2v86HandleINS0_5ValueEEE@Base 5.0.2
 _ZN17QV8ContextWrapper7destroyEv@Base 5.0.2
 _ZN17QV8ContextWrapper8qmlScopeEP15QQmlContextDataP7QObject@Base 5.0.2
 _ZN17QV8ContextWrapper8urlScopeERK4QUrl@Base 5.0.2
 _ZN17QV8ContextWrapperC1Ev@Base 5.0.2
 _ZN17QV8ContextWrapperC2Ev@Base 5.0.2
 _ZN17QV8ContextWrapperD1Ev@Base 5.0.2
 _ZN17QV8ContextWrapperD2Ev@Base 5.0.2
 _ZN17QV8QObjectWrapper10DisconnectERKN2v89ArgumentsE@Base 5.0.2
 _ZN17QV8QObjectWrapper10EnumeratorERKN2v812AccessorInfoE@Base 5.0.2
 _ZN17QV8QObjectWrapper10newQObjectEP7QObject@Base 5.0.2
 _ZN17QV8QObjectWrapper10newQObjectEP7QObjectP8QQmlDataP9QV8Engine@Base 5.0.2
 _ZN17QV8QObjectWrapper11GetPropertyEP9QV8EngineP7QObjectPN2v86HandleINS4_5ValueEEERK15QHashedV8StringP15QQmlContextDataNS_12RevisionModeE@Base 5.0.2
 _ZN17QV8QObjectWrapper11SetPropertyEP9QV8EngineP7QObjectRK15QHashedV8StringP15QQmlContextDataN2v86HandleINS9_5ValueEEENS_12RevisionModeE@Base 5.0.2
 _ZN17QV8QObjectWrapper15ExtractQtMethodEP9QV8EngineN2v86HandleINS2_8FunctionEEE@Base 5.0.2
 _ZN17QV8QObjectWrapper15ExtractQtSignalEP9QV8EngineN2v86HandleINS2_6ObjectEEE@Base 5.0.2
 _ZN17QV8QObjectWrapper17deleteWeakQObjectEP18QV8QObjectResourceb@Base 5.0.2
 _ZN17QV8QObjectWrapper28WeakQObjectReferenceCallbackEN2v810PersistentINS0_5ValueEEEPv@Base 5.0.2
 _ZN17QV8QObjectWrapper4initEP9QV8Engine@Base 5.0.2
 _ZN17QV8QObjectWrapper5QueryEN2v85LocalINS0_6StringEEERKNS0_12AccessorInfoE@Base 5.0.2
 _ZN17QV8QObjectWrapper6GetterEN2v85LocalINS0_6StringEEERKNS0_12AccessorInfoE@Base 5.0.2
 _ZN17QV8QObjectWrapper6InvokeERKN2v89ArgumentsE@Base 5.0.2
 _ZN17QV8QObjectWrapper6SetterEN2v85LocalINS0_6StringEEENS1_INS0_5ValueEEERKNS0_12AccessorInfoE@Base 5.0.2
 _ZN17QV8QObjectWrapper7ConnectERKN2v89ArgumentsE@Base 5.0.2
 _ZN17QV8QObjectWrapper7destroyEv@Base 5.0.2
 _ZN17QV8QObjectWrapper9isQObjectEN2v86HandleINS0_6ObjectEEE@Base 5.0.2
 _ZN17QV8QObjectWrapper9toQObjectEN2v86HandleINS0_6ObjectEEE@Base 5.0.2
 _ZN17QV8QObjectWrapper9toQObjectEP17QV8ObjectResource@Base 5.0.2
 _ZN17QV8QObjectWrapperC1Ev@Base 5.0.2
 _ZN17QV8QObjectWrapperC2Ev@Base 5.0.2
 _ZN17QV8QObjectWrapperD1Ev@Base 5.0.2
 _ZN17QV8QObjectWrapperD2Ev@Base 5.0.2
 _ZN18QAnimationGroupJob15appendAnimationEP21QAbstractAnimationJob@Base 5.0.2
 _ZN18QAnimationGroupJob15removeAnimationEP21QAbstractAnimationJob@Base 5.0.2
 _ZN18QAnimationGroupJob16animationRemovedEP21QAbstractAnimationJobS1_S1_@Base 5.0.2
 _ZN18QAnimationGroupJob16prependAnimationEP21QAbstractAnimationJob@Base 5.0.2
 _ZN18QAnimationGroupJob28topLevelAnimationLoopChangedEv@Base 5.0.2
 _ZN18QAnimationGroupJob29uncontrolledAnimationFinishedEP21QAbstractAnimationJob@Base 5.0.2
 _ZN18QAnimationGroupJob34setUncontrolledAnimationFinishTimeEP21QAbstractAnimationJobi@Base 5.0.2
 _ZN18QAnimationGroupJob36resetUncontrolledAnimationFinishTimeEP21QAbstractAnimationJob@Base 5.0.2
 _ZN18QAnimationGroupJob37resetUncontrolledAnimationsFinishTimeEv@Base 5.0.2
 _ZN18QAnimationGroupJob5clearEv@Base 5.0.2
 _ZN18QAnimationGroupJobC1Ev@Base 5.0.2
 _ZN18QAnimationGroupJobC2Ev@Base 5.0.2
 _ZN18QAnimationGroupJobD0Ev@Base 5.0.2
 _ZN18QAnimationGroupJobD1Ev@Base 5.0.2
 _ZN18QAnimationGroupJobD2Ev@Base 5.0.2
 _ZN18QPauseAnimationJob11setDurationEi@Base 5.0.2
 _ZN18QPauseAnimationJob17updateCurrentTimeEi@Base 5.0.2
 _ZN18QPauseAnimationJobC1Ei@Base 5.0.2
 _ZN18QPauseAnimationJobC2Ei@Base 5.0.2
 _ZN18QPauseAnimationJobD0Ev@Base 5.0.2
 _ZN18QPauseAnimationJobD1Ev@Base 5.0.2
 _ZN18QPauseAnimationJobD2Ev@Base 5.0.2
 _ZN18QQmlAnimationTimer11qt_metacallEN11QMetaObject4CallEiPPv@Base 5.0.2
 _ZN18QQmlAnimationTimer11qt_metacastEPKc@Base 5.0.2
 _ZN18QQmlAnimationTimer15startAnimationsEv@Base 5.0.2
 _ZN18QQmlAnimationTimer16staticMetaObjectE@Base 5.0.2
 _ZN18QQmlAnimationTimer17ensureTimerUpdateEv@Base 5.0.2
 _ZN18QQmlAnimationTimer17registerAnimationEP21QAbstractAnimationJobb@Base 5.0.2
 _ZN18QQmlAnimationTimer19unregisterAnimationEP21QAbstractAnimationJob@Base 5.0.2
 _ZN18QQmlAnimationTimer20updateAnimationTimerEv@Base 5.0.2
 _ZN18QQmlAnimationTimer20updateAnimationsTimeEx@Base 5.0.2
 _ZN18QQmlAnimationTimer21restartAnimationTimerEv@Base 5.0.2
 _ZN18QQmlAnimationTimer24registerRunningAnimationEP21QAbstractAnimationJob@Base 5.0.2
 _ZN18QQmlAnimationTimer26unregisterRunningAnimationEP21QAbstractAnimationJob@Base 5.0.2
 _ZN18QQmlAnimationTimer33closestPauseAnimationTimeToFinishEv@Base 5.0.2
 _ZN18QQmlAnimationTimer8instanceEb@Base 5.0.2
 _ZN18QQmlAnimationTimer8instanceEv@Base 5.0.2
 _ZN18QQmlAnimationTimer9stopTimerEv@Base 5.0.2
 _ZN18QQmlAnimationTimerC1Ev@Base 5.0.2
 _ZN18QQmlAnimationTimerC2Ev@Base 5.0.2
 _ZN18QQmlAnimationTimerD0Ev@Base 5.0.2
 _ZN18QQmlAnimationTimerD1Ev@Base 5.0.2
 _ZN18QQmlAnimationTimerD2Ev@Base 5.0.2
 _ZN18QQmlMemoryProfiler4saveEPKc@Base 5.0.2
 _ZN18QQmlMemoryProfiler5clearEv@Base 5.0.2
 _ZN18QQmlMemoryProfiler5statsEPiS0_@Base 5.0.2
 _ZN18QQmlMemoryProfiler6enableEv@Base 5.0.2
 _ZN18QQmlMemoryProfiler7disableEv@Base 5.0.2
 _ZN18QQmlMemoryProfiler9isEnabledEv@Base 5.0.2
 _ZN18QQmlOpenMetaObject12initialValueEi@Base 5.0.2
 _ZN18QQmlOpenMetaObject12propertyReadEi@Base 5.0.2
 _ZN18QQmlOpenMetaObject13propertyWriteEi@Base 5.0.2
 _ZN18QQmlOpenMetaObject14createPropertyEPKcS1_@Base 5.0.2
 _ZN18QQmlOpenMetaObject15propertyCreatedEiR20QMetaPropertyBuilder@Base 5.0.2
 _ZN18QQmlOpenMetaObject15propertyWrittenEi@Base 5.0.2
 _ZN18QQmlOpenMetaObject18propertyWriteValueEiRK8QVariant@Base 5.0.2
 _ZN18QQmlOpenMetaObject8metaCallEN11QMetaObject4CallEiPPv@Base 5.0.2
 _ZN18QQmlOpenMetaObject8setValueERK10QByteArrayRK8QVariant@Base 5.0.2
 _ZN18QQmlOpenMetaObject8setValueEiRK8QVariant@Base 5.0.2
 _ZN18QQmlOpenMetaObject9setCachedEb@Base 5.0.2
 _ZN18QQmlOpenMetaObjectC1EP7QObjectP22QQmlOpenMetaObjectTypeb@Base 5.0.2
 _ZN18QQmlOpenMetaObjectC1EP7QObjectPK11QMetaObjectb@Base 5.0.2
 _ZN18QQmlOpenMetaObjectC2EP7QObjectP22QQmlOpenMetaObjectTypeb@Base 5.0.2
 _ZN18QQmlOpenMetaObjectC2EP7QObjectPK11QMetaObjectb@Base 5.0.2
 _ZN18QQmlOpenMetaObjectD0Ev@Base 5.0.2
 _ZN18QQmlOpenMetaObjectD1Ev@Base 5.0.2
 _ZN18QQmlOpenMetaObjectD2Ev@Base 5.0.2
 _ZN18QQmlOpenMetaObjectixERK10QByteArray@Base 5.0.2
 _ZN18QQmlOpenMetaObjectixEi@Base 5.0.2
 _ZN18QQmlPointValueType11qt_metacallEN11QMetaObject4CallEiPPv@Base 5.0.2
 _ZN18QQmlPointValueType11qt_metacastEPKc@Base 5.0.2
 _ZN18QQmlPointValueType16staticMetaObjectE@Base 5.0.2
 _ZN18QQmlPointValueType4setXEi@Base 5.0.2
 _ZN18QQmlPointValueType4setYEi@Base 5.0.2
 _ZN18QQmlPointValueTypeC1EP7QObject@Base 5.0.2
 _ZN18QQmlPointValueTypeC2EP7QObject@Base 5.0.2
 _ZN18QQmlPointValueTypeD0Ev@Base 5.0.2
 _ZN18QQmlPointValueTypeD1Ev@Base 5.0.2
 _ZN18QQmlPointValueTypeD2Ev@Base 5.0.2
 _ZN18QQmlRectFValueType11qt_metacallEN11QMetaObject4CallEiPPv@Base 5.0.2
 _ZN18QQmlRectFValueType11qt_metacastEPKc@Base 5.0.2
 _ZN18QQmlRectFValueType16staticMetaObjectE@Base 5.0.2
 (subst)_ZN18QQmlRectFValueType4setXE{qreal}@Base 5.0.2
 (subst)_ZN18QQmlRectFValueType4setYE{qreal}@Base 5.0.2
 (subst)_ZN18QQmlRectFValueType8setWidthE{qreal}@Base 5.0.2
 (subst)_ZN18QQmlRectFValueType9setHeightE{qreal}@Base 5.0.2
 _ZN18QQmlRectFValueTypeC1EP7QObject@Base 5.0.2
 _ZN18QQmlRectFValueTypeC2EP7QObject@Base 5.0.2
 _ZN18QQmlRectFValueTypeD0Ev@Base 5.0.2
 _ZN18QQmlRectFValueTypeD1Ev@Base 5.0.2
 _ZN18QQmlRectFValueTypeD2Ev@Base 5.0.2
 _ZN18QQmlSizeFValueType11qt_metacallEN11QMetaObject4CallEiPPv@Base 5.0.2
 _ZN18QQmlSizeFValueType11qt_metacastEPKc@Base 5.0.2
 _ZN18QQmlSizeFValueType16staticMetaObjectE@Base 5.0.2
 (subst)_ZN18QQmlSizeFValueType8setWidthE{qreal}@Base 5.0.2
 (subst)_ZN18QQmlSizeFValueType9setHeightE{qreal}@Base 5.0.2
 _ZN18QQmlSizeFValueTypeC1EP7QObject@Base 5.0.2
 _ZN18QQmlSizeFValueTypeC2EP7QObject@Base 5.0.2
 _ZN18QQmlSizeFValueTypeD0Ev@Base 5.0.2
 _ZN18QQmlSizeFValueTypeD1Ev@Base 5.0.2
 _ZN18QQmlSizeFValueTypeD2Ev@Base 5.0.2
 _ZN19QQmlAbstractBinding11addToObjectEv@Base 5.0.2
 _ZN19QQmlAbstractBinding11weakPointerEv@Base 5.0.2
 (optional=templinst)_ZN19QQmlAbstractBinding15default_destroyI11QQmlBindingEEvPS_NS_11DestroyModeE@Base 5.0.2
 (optional=templinst)_ZN19QQmlAbstractBinding15default_destroyI25QQmlValueTypeProxyBindingEEvPS_NS_11DestroyModeE@Base 5.0.2
 _ZN19QQmlAbstractBinding16removeFromObjectEv@Base 5.0.2
 _ZN19QQmlAbstractBinding18default_expressionEPKS_@Base 5.0.2
 _ZN19QQmlAbstractBinding21printBindingLoopErrorER12QQmlProperty@Base 5.0.2
 _ZN19QQmlAbstractBinding23default_retargetBindingEPS_P7QObjecti@Base 5.0.2
 _ZN19QQmlAbstractBinding5clearEv@Base 5.0.2
 _ZN19QQmlAbstractBinding7vTablesE@Base 5.0.2
 _ZN19QQmlAbstractBindingC1ENS_11BindingTypeE@Base 5.0.2
 _ZN19QQmlAbstractBindingC2ENS_11BindingTypeE@Base 5.0.2
 _ZN19QQmlAbstractBindingD1Ev@Base 5.0.2
 _ZN19QQmlAbstractBindingD2Ev@Base 5.0.2
 _ZN19QQmlEasingValueType11qt_metacallEN11QMetaObject4CallEiPPv@Base 5.0.2
 _ZN19QQmlEasingValueType11qt_metacastEPKc@Base 5.0.2
 (subst)_ZN19QQmlEasingValueType12setAmplitudeE{qreal}@Base 5.0.2
 (subst)_ZN19QQmlEasingValueType12setOvershootE{qreal}@Base 5.0.2
 _ZN19QQmlEasingValueType14setBezierCurveERK5QListI8QVariantE@Base 5.0.2
 _ZN19QQmlEasingValueType16staticMetaObjectE@Base 5.0.2
 _ZN19QQmlEasingValueType7setTypeENS_4TypeE@Base 5.0.2
 (subst)_ZN19QQmlEasingValueType9setPeriodE{qreal}@Base 5.0.2
 _ZN19QQmlEasingValueTypeC1EP7QObject@Base 5.0.2
 _ZN19QQmlEasingValueTypeC2EP7QObject@Base 5.0.2
 _ZN19QQmlEasingValueTypeD0Ev@Base 5.0.2
 _ZN19QQmlEasingValueTypeD1Ev@Base 5.0.2
 _ZN19QQmlEasingValueTypeD2Ev@Base 5.0.2
 _ZN19QQmlExtensionPlugin11qt_metacallEN11QMetaObject4CallEiPPv@Base 5.0.2
 _ZN19QQmlExtensionPlugin11qt_metacastEPKc@Base 5.0.2
 _ZN19QQmlExtensionPlugin16initializeEngineEP10QQmlEnginePKc@Base 5.0.2
 _ZN19QQmlExtensionPlugin16staticMetaObjectE@Base 5.0.2
 _ZN19QQmlExtensionPluginC1EP7QObject@Base 5.0.2
 _ZN19QQmlExtensionPluginC2EP7QObject@Base 5.0.2
 _ZN19QQmlExtensionPluginD0Ev@Base 5.0.2
 _ZN19QQmlExtensionPluginD1Ev@Base 5.0.2
 _ZN19QQmlExtensionPluginD2Ev@Base 5.0.2
 _ZN19QQmlPointFValueType11qt_metacallEN11QMetaObject4CallEiPPv@Base 5.0.2
 _ZN19QQmlPointFValueType11qt_metacastEPKc@Base 5.0.2
 _ZN19QQmlPointFValueType16staticMetaObjectE@Base 5.0.2
 (subst)_ZN19QQmlPointFValueType4setXE{qreal}@Base 5.0.2
 (subst)_ZN19QQmlPointFValueType4setYE{qreal}@Base 5.0.2
 _ZN19QQmlPointFValueTypeC1EP7QObject@Base 5.0.2
 _ZN19QQmlPointFValueTypeC2EP7QObject@Base 5.0.2
 _ZN19QQmlPointFValueTypeD0Ev@Base 5.0.2
 _ZN19QQmlPointFValueTypeD1Ev@Base 5.0.2
 _ZN19QQmlPointFValueTypeD2Ev@Base 5.0.2
 _ZN19QQmlProfilerService10initializeEv@Base 5.0.2
 _ZN19QQmlProfilerService10startRangeENS_9RangeTypeENS_11BindingTypeE@Base 5.0.2
 _ZN19QQmlProfilerService12addEventImplENS_9EventTypeE@Base 5.0.2
 _ZN19QQmlProfilerService12sendMessagesEv@Base 5.0.2
 _ZN19QQmlProfilerService13rangeLocationENS_9RangeTypeERK4QUrlii@Base 5.0.2
 _ZN19QQmlProfilerService13rangeLocationENS_9RangeTypeERK7QStringii@Base 5.0.2
 _ZN19QQmlProfilerService13stopProfilingEv@Base 5.0.2
 _ZN19QQmlProfilerService14animationFrameEx@Base 5.0.2
 _ZN19QQmlProfilerService14processMessageERK16QQmlProfilerData@Base 5.0.2
 _ZN19QQmlProfilerService14startProfilingEv@Base 5.0.2
 _ZN19QQmlProfilerService15messageReceivedERK10QByteArray@Base 5.0.2
 _ZN19QQmlProfilerService16profilingEnabledEv@Base 5.0.2
 _ZN19QQmlProfilerService17sendProfilingDataEv@Base 5.0.2
 _ZN19QQmlProfilerService17stopProfilingImplEv@Base 5.0.2
 _ZN19QQmlProfilerService18animationFrameImplEx@Base 5.0.2
 _ZN19QQmlProfilerService18startProfilingImplEv@Base 5.0.2
 _ZN19QQmlProfilerService19setProfilingEnabledEb@Base 5.0.2
 _ZN19QQmlProfilerService21stateAboutToBeChangedEN16QQmlDebugService5StateE@Base 5.0.2
 _ZN19QQmlProfilerService27sendStartedProfilingMessageEv@Base 5.0.2
 _ZN19QQmlProfilerService31sendStartedProfilingMessageImplEv@Base 5.0.2
 _ZN19QQmlProfilerService8addEventENS_9EventTypeE@Base 5.0.2
 _ZN19QQmlProfilerService8endRangeENS_9RangeTypeE@Base 5.0.2
 _ZN19QQmlProfilerService8instanceE@Base 5.0.2
 _ZN19QQmlProfilerService9rangeDataENS_9RangeTypeERK4QUrl@Base 5.0.2
 _ZN19QQmlProfilerService9rangeDataENS_9RangeTypeERK7QString@Base 5.0.2
 _ZN19QQmlProfilerServiceC1Ev@Base 5.0.2
 _ZN19QQmlProfilerServiceC2Ev@Base 5.0.2
 _ZN19QQmlProfilerServiceD0Ev@Base 5.0.2
 _ZN19QQmlProfilerServiceD1Ev@Base 5.0.2
 _ZN19QQmlProfilerServiceD2Ev@Base 5.0.2
 _ZN19QQmlPropertyPrivate10setBindingEP7QObjectiiP19QQmlAbstractBinding6QFlagsINS_9WriteFlagEE@Base 5.0.2
 _ZN19QQmlPropertyPrivate10setBindingERK12QQmlPropertyP19QQmlAbstractBinding6QFlagsINS_9WriteFlagEE@Base 5.0.2
 _ZN19QQmlPropertyPrivate11flushSignalEPK7QObjecti@Base 5.0.2
 _ZN19QQmlPropertyPrivate11initDefaultEP7QObject@Base 5.0.2
 _ZN19QQmlPropertyPrivate12bindingIndexERK12QQmlProperty@Base 5.0.2
 _ZN19QQmlPropertyPrivate12bindingIndexERK16QQmlPropertyData@Base 5.0.2
 _ZN19QQmlPropertyPrivate12initPropertyEP7QObjectRK7QString@Base 5.0.2
 _ZN19QQmlPropertyPrivate12writeBindingEP7QObjectRK16QQmlPropertyDataP15QQmlContextDataP24QQmlJavaScriptExpressionN2v86HandleINS9_5ValueEEEb6QFlagsINS_9WriteFlagEE@Base 5.0.2
 _ZN19QQmlPropertyPrivate13saveValueTypeERK16QQmlPropertyDataPK11QMetaObjectiP10QQmlEngine@Base 5.0.2
 _ZN19QQmlPropertyPrivate15findAliasTargetEP7QObjectiPS1_Pi@Base 5.0.2
 _ZN19QQmlPropertyPrivate16findSignalByNameEPK11QMetaObjectRK10QByteArray@Base 5.0.2
 _ZN19QQmlPropertyPrivate16signalExpressionERK12QQmlProperty@Base 5.0.2
 _ZN19QQmlPropertyPrivate17readValuePropertyEv@Base 5.0.2
 _ZN19QQmlPropertyPrivate17writeEnumPropertyERK13QMetaPropertyiP7QObjectRK8QVarianti@Base 5.0.2
 _ZN19QQmlPropertyPrivate18setBindingNoEnableEP7QObjectiiP19QQmlAbstractBinding@Base 5.0.2
 _ZN19QQmlPropertyPrivate18valueTypeCoreIndexERK12QQmlProperty@Base 5.0.2
 _ZN19QQmlPropertyPrivate18writeValuePropertyEP7QObjectRK16QQmlPropertyDataRK8QVariantP15QQmlContextData6QFlagsINS_9WriteFlagEE@Base 5.0.2
 _ZN19QQmlPropertyPrivate18writeValuePropertyERK8QVariant6QFlagsINS_9WriteFlagEE@Base 5.0.2
 _ZN19QQmlPropertyPrivate19setSignalExpressionERK12QQmlPropertyP25QQmlBoundSignalExpression@Base 5.0.2
 _ZN19QQmlPropertyPrivate20rawMetaObjectForTypeEP17QQmlEnginePrivatei@Base 5.0.2
 _ZN19QQmlPropertyPrivate20takeSignalExpressionERK12QQmlPropertyP25QQmlBoundSignalExpression@Base 5.0.2
 _ZN19QQmlPropertyPrivate21activateSharedBindingEP15QQmlContextDatai6QFlagsINS_9WriteFlagEE@Base 5.0.2
 _ZN19QQmlPropertyPrivate5writeEP7QObjectRK16QQmlPropertyDataRK8QVariantP15QQmlContextData6QFlagsINS_9WriteFlagEE@Base 5.0.2
 _ZN19QQmlPropertyPrivate5writeERK12QQmlPropertyRK8QVariant6QFlagsINS_9WriteFlagEE@Base 5.0.2
 _ZN19QQmlPropertyPrivate7bindingEP7QObjectii@Base 5.0.2
 _ZN19QQmlPropertyPrivate7bindingERK12QQmlProperty@Base 5.0.2
 _ZN19QQmlPropertyPrivate7connectEPK7QObjectiS2_iiPi@Base 5.0.2
 _ZN19QQmlPropertyPrivate7restoreEP7QObjectRK16QQmlPropertyDataP15QQmlContextData@Base 5.0.2
 _ZN19QQmlPropertyPrivateC1Ev@Base 5.0.2
 _ZN19QQmlPropertyPrivateC2Ev@Base 5.0.2
 _ZN19QQmlPropertyPrivateD0Ev@Base 5.0.2
 _ZN19QQmlPropertyPrivateD1Ev@Base 5.0.2
 _ZN19QQmlPropertyPrivateD2Ev@Base 5.0.2
 _ZN19QV8ValueTypeWrapper12newValueTypeEP7QObjectiP13QQmlValueType@Base 5.0.2
 _ZN19QV8ValueTypeWrapper12newValueTypeERK8QVariantP13QQmlValueType@Base 5.0.2
 _ZN19QV8ValueTypeWrapper14ToStringGetterEN2v85LocalINS0_6StringEEERKNS0_12AccessorInfoE@Base 5.0.2
 _ZN19QV8ValueTypeWrapper4initEP9QV8Engine@Base 5.0.2
 _ZN19QV8ValueTypeWrapper6GetterEN2v85LocalINS0_6StringEEERKNS0_12AccessorInfoE@Base 5.0.2
 _ZN19QV8ValueTypeWrapper6SetterEN2v85LocalINS0_6StringEEENS1_INS0_5ValueEEERKNS0_12AccessorInfoE@Base 5.0.2
 _ZN19QV8ValueTypeWrapper7destroyEv@Base 5.0.2
 _ZN19QV8ValueTypeWrapper7isEqualEP17QV8ObjectResourceRK8QVariant@Base 5.0.2
 _ZN19QV8ValueTypeWrapper8ToStringERKN2v89ArgumentsE@Base 5.0.2
 _ZN19QV8ValueTypeWrapper9toVariantEN2v86HandleINS0_6ObjectEEE@Base 5.0.2
 _ZN19QV8ValueTypeWrapper9toVariantEN2v86HandleINS0_6ObjectEEEiPb@Base 5.0.2
 _ZN19QV8ValueTypeWrapper9toVariantEP17QV8ObjectResource@Base 5.0.2
 _ZN19QV8ValueTypeWrapperC1Ev@Base 5.0.2
 _ZN19QV8ValueTypeWrapperC2Ev@Base 5.0.2
 _ZN19QV8ValueTypeWrapperD1Ev@Base 5.0.2
 _ZN19QV8ValueTypeWrapperD2Ev@Base 5.0.2
 _ZN20QQmlComponentPrivate11beginCreateEP15QQmlContextData@Base 5.0.2
 _ZN20QQmlComponentPrivate12fromTypeDataEP12QQmlTypeData@Base 5.0.2
 _ZN20QQmlComponentPrivate13beginDeferredEP17QQmlEnginePrivateP7QObjectPNS_17ConstructionStateE@Base 5.0.2
 _ZN20QQmlComponentPrivate13typeDataReadyEP12QQmlTypeData@Base 5.0.2
 _ZN20QQmlComponentPrivate14completeCreateEv@Base 5.0.2
 (subst)_ZN20QQmlComponentPrivate16typeDataProgressEP12QQmlTypeData{qreal}@Base 5.0.2
 _ZN20QQmlComponentPrivate37initializeObjectWithInitialPropertiesEN2v86HandleINS0_6ObjectEEES3_P7QObject@Base 5.0.2
 _ZN20QQmlComponentPrivate5clearEv@Base 5.0.2
 _ZN20QQmlComponentPrivate7loadUrlERK4QUrlN13QQmlComponent15CompilationModeE@Base 5.0.2
 _ZN20QQmlComponentPrivate8completeEP17QQmlEnginePrivatePNS_17ConstructionStateE@Base 5.0.2
 _ZN20QQmlComponentPrivateD0Ev@Base 5.0.2
 _ZN20QQmlComponentPrivateD1Ev@Base 5.0.2
 _ZN20QQmlComponentPrivateD2Ev@Base 5.0.2
 _ZN20QQmlCustomParserNodeC1ERKS_@Base 5.0.2
 _ZN20QQmlCustomParserNodeC1Ev@Base 5.0.2
 _ZN20QQmlCustomParserNodeC2ERKS_@Base 5.0.2
 _ZN20QQmlCustomParserNodeC2Ev@Base 5.0.2
 _ZN20QQmlCustomParserNodeD1Ev@Base 5.0.2
 _ZN20QQmlCustomParserNodeD2Ev@Base 5.0.2
 _ZN20QQmlCustomParserNodeaSERKS_@Base 5.0.2
 _ZN20QQmlDebuggingEnablerC1Eb@Base 5.0.2
 _ZN20QQmlDebuggingEnablerC2Eb@Base 5.0.2
 _ZN20QQmlInspectorService10removeViewEP7QObject@Base 5.0.2
 _ZN20QQmlInspectorService11qt_metacallEN11QMetaObject4CallEiPPv@Base 5.0.2
 _ZN20QQmlInspectorService11qt_metacastEPKc@Base 5.0.2
 _ZN20QQmlInspectorService11sendMessageERK10QByteArray@Base 5.0.2
 _ZN20QQmlInspectorService11updateStateEv@Base 5.0.2
 _ZN20QQmlInspectorService12stateChangedEN16QQmlDebugService5StateE@Base 5.0.2
 _ZN20QQmlInspectorService14processMessageERK10QByteArray@Base 5.0.2
 _ZN20QQmlInspectorService15messageReceivedERK10QByteArray@Base 5.0.2
 _ZN20QQmlInspectorService16staticMetaObjectE@Base 5.0.2
 _ZN20QQmlInspectorService20loadInspectorPluginsEv@Base 5.0.2
 _ZN20QQmlInspectorService7addViewEP7QObject@Base 5.0.2
 _ZN20QQmlInspectorService8instanceEv@Base 5.0.2
 _ZN20QQmlInspectorServiceC1Ev@Base 5.0.2
 _ZN20QQmlInspectorServiceC2Ev@Base 5.0.2
 _ZN20QQmlInspectorServiceD0Ev@Base 5.0.2
 _ZN20QQmlInspectorServiceD1Ev@Base 5.0.2
 _ZN20QQmlInspectorServiceD2Ev@Base 5.0.2
 _ZN20QQmlStringConverters14dateFromStringERK7QStringPb@Base 5.0.2
 _ZN20QQmlStringConverters14rgbaFromStringERK7QStringPb@Base 5.0.2
 _ZN20QQmlStringConverters14timeFromStringERK7QStringPb@Base 5.0.2
 _ZN20QQmlStringConverters15colorFromStringERK7QStringPb@Base 5.0.2
 _ZN20QQmlStringConverters15rectFFromStringERK7QStringPb@Base 5.0.2
 _ZN20QQmlStringConverters15sizeFFromStringERK7QStringPb@Base 5.0.2
 (subst)_ZN20QQmlStringConverters16createFromStringEiRK7QStringPv{size_t}@Base 5.0.2
 _ZN20QQmlStringConverters16pointFFromStringERK7QStringPb@Base 5.0.2
 _ZN20QQmlStringConverters17variantFromStringERK7QString@Base 5.0.2
 _ZN20QQmlStringConverters17variantFromStringERK7QStringiPb@Base 5.0.2
 _ZN20QQmlStringConverters18dateTimeFromStringERK7QStringPb@Base 5.0.2
 _ZN20QQmlValueTypeFactory11isValueTypeEi@Base 5.0.2
 _ZN20QQmlValueTypeFactory18registerValueTypesEPKcii@Base 5.0.2
 _ZN20QQmlValueTypeFactory9valueTypeEi@Base 5.0.2
 _ZN21QAbstractAnimationJob11updateStateENS_5StateES0_@Base 5.0.2
 _ZN21QAbstractAnimationJob12setDirectionENS_9DirectionE@Base 5.0.2
 _ZN21QAbstractAnimationJob12setLoopCountEi@Base 5.0.2
 _ZN21QAbstractAnimationJob12stateChangedENS_5StateES0_@Base 5.0.2
 _ZN21QAbstractAnimationJob14setCurrentTimeEi@Base 5.0.2
 _ZN21QAbstractAnimationJob15updateDirectionENS_9DirectionE@Base 5.0.2
 _ZN21QAbstractAnimationJob18currentLoopChangedEv@Base 5.0.2
 _ZN21QAbstractAnimationJob18currentTimeChangedEi@Base 5.0.2
 _ZN21QAbstractAnimationJob20setEnableUserControlEv@Base 5.0.2
 _ZN21QAbstractAnimationJob21setDisableUserControlEv@Base 5.0.2
 _ZN21QAbstractAnimationJob26addAnimationChangeListenerEP27QAnimationJobChangeListener6QFlagsINS_10ChangeTypeEE@Base 5.0.2
 _ZN21QAbstractAnimationJob29removeAnimationChangeListenerEP27QAnimationJobChangeListener6QFlagsINS_10ChangeTypeEE@Base 5.0.2
 _ZN21QAbstractAnimationJob4stopEv@Base 5.0.2
 _ZN21QAbstractAnimationJob5pauseEv@Base 5.0.2
 _ZN21QAbstractAnimationJob5startEv@Base 5.0.2
 _ZN21QAbstractAnimationJob6resumeEv@Base 5.0.2
 _ZN21QAbstractAnimationJob8finishedEv@Base 5.0.2
 _ZN21QAbstractAnimationJob8setStateENS_5StateE@Base 5.0.2
 _ZN21QAbstractAnimationJobC1Ev@Base 5.0.2
 _ZN21QAbstractAnimationJobC2Ev@Base 5.0.2
 _ZN21QAbstractAnimationJobD0Ev@Base 5.0.2
 _ZN21QAbstractAnimationJobD1Ev@Base 5.0.2
 _ZN21QAbstractAnimationJobD2Ev@Base 5.0.2
 _ZN21QQmlImageProviderBaseC1Ev@Base 5.0.2
 _ZN21QQmlImageProviderBaseC2Ev@Base 5.0.2
 _ZN21QQmlImageProviderBaseD0Ev@Base 5.0.2
 _ZN21QQmlImageProviderBaseD1Ev@Base 5.0.2
 _ZN21QQmlImageProviderBaseD2Ev@Base 5.0.2
 (subst)_ZN21QQmlValueTypeProvider13copyValueTypeEiPKvPv{size_t}@Base 5.0.2
 (subst)_ZN21QQmlValueTypeProvider13initValueTypeEiPv{size_t}@Base 5.0.2
 (subst)_ZN21QQmlValueTypeProvider13readValueTypeEiPKv{size_t}iPv@Base 5.0.2
 (subst)_ZN21QQmlValueTypeProvider14equalValueTypeEiPKvS1_{size_t}@Base 5.0.2
 (subst)_ZN21QQmlValueTypeProvider14storeValueTypeEiPKvPv{size_t}@Base 5.0.2
 (subst)_ZN21QQmlValueTypeProvider14writeValueTypeEiPKvPv{size_t}@Base 5.0.2
 _ZN21QQmlValueTypeProvider15createValueTypeEi@Base 5.0.2
 _ZN21QQmlValueTypeProvider15createValueTypeEiiPPKv@Base 5.0.2
 (subst)_ZN21QQmlValueTypeProvider16createFromStringEiRK7QStringPv{size_t}@Base 5.0.2
 _ZN21QQmlValueTypeProvider16createStringFromEiPKvP7QString@Base 5.0.2
 (subst)_ZN21QQmlValueTypeProvider16destroyValueTypeEiPv{size_t}@Base 5.0.2
 _ZN21QQmlValueTypeProvider17variantFromStringERK7QStringP8QVariant@Base 5.0.2
 _ZN21QQmlValueTypeProvider17variantFromStringEiRK7QStringP8QVariant@Base 5.0.2
 _ZN21QQmlValueTypeProvider19variantFromJsObjectEi12QQmlV8HandleP9QV8EngineP8QVariant@Base 5.0.2
 _ZN21QQmlValueTypeProvider21createStringFromValueEiPKvP7QString@Base 5.0.2
 (subst)_ZN21QQmlValueTypeProvider21createValueFromStringEiRK7QStringPv{size_t}@Base 5.0.2
 _ZN21QQmlValueTypeProvider23createVariantFromStringERK7QString@Base 5.0.2
 _ZN21QQmlValueTypeProvider23createVariantFromStringEiRK7QStringPb@Base 5.0.2
 _ZN21QQmlValueTypeProvider25createVariantFromJsObjectEi12QQmlV8HandleP9QV8EnginePb@Base 5.0.2
 (subst)_ZN21QQmlValueTypeProvider4copyEiPKvPv{size_t}@Base 5.0.2
 (subst)_ZN21QQmlValueTypeProvider4initEiPv{size_t}@Base 5.0.2
 (subst)_ZN21QQmlValueTypeProvider4readEiPKv{size_t}iPv@Base 5.0.2
 (subst)_ZN21QQmlValueTypeProvider5equalEiPKvS1_{size_t}@Base 5.0.2
 (subst)_ZN21QQmlValueTypeProvider5storeEiPKvPv{size_t}@Base 5.0.2
 (subst)_ZN21QQmlValueTypeProvider5writeEiPKvPv{size_t}@Base 5.0.2
 _ZN21QQmlValueTypeProvider6createEiRP13QQmlValueType@Base 5.0.2
 _ZN21QQmlValueTypeProvider6createEiiPPKvP8QVariant@Base 5.0.2
 (subst)_ZN21QQmlValueTypeProvider7destroyEiPv{size_t}@Base 5.0.2
 _ZN21QQmlValueTypeProviderC1Ev@Base 5.0.2
 _ZN21QQmlValueTypeProviderC2Ev@Base 5.0.2
 _ZN21QQmlValueTypeProviderD0Ev@Base 5.0.2
 _ZN21QQmlValueTypeProviderD1Ev@Base 5.0.2
 _ZN21QQmlValueTypeProviderD2Ev@Base 5.0.2
 _ZN22QQmlAbstractExpression10setContextEP15QQmlContextData@Base 5.0.2
 _ZN22QQmlAbstractExpression7refreshEv@Base 5.0.2
 _ZN22QQmlAbstractExpressionC1Ev@Base 5.0.2
 _ZN22QQmlAbstractExpressionC2Ev@Base 5.0.2
 _ZN22QQmlAbstractExpressionD0Ev@Base 5.0.2
 _ZN22QQmlAbstractExpressionD1Ev@Base 5.0.2
 _ZN22QQmlAbstractExpressionD2Ev@Base 5.0.2
 _ZN22QQmlAccessorProperties18registerPropertiesEPK11QMetaObjectiPNS_8PropertyE@Base 5.0.2
 _ZN22QQmlEngineDebugService10objectDataEP7QObject@Base 5.0.2
 _ZN22QQmlEngineDebugService10setBindingEiRK7QStringRK8QVariantbS0_ii@Base 5.0.2
 _ZN22QQmlEngineDebugService11qt_metacallEN11QMetaObject4CallEiPPv@Base 5.0.2
 _ZN22QQmlEngineDebugService11qt_metacastEPKc@Base 5.0.2
 _ZN22QQmlEngineDebugService12propertyDataEP7QObjecti@Base 5.0.2
 _ZN22QQmlEngineDebugService12resetBindingEiRK7QString@Base 5.0.2
 _ZN22QQmlEngineDebugService13objectCreatedEP10QQmlEngineP7QObject@Base 5.0.2
 _ZN22QQmlEngineDebugService13setMethodBodyEiRK7QStringS2_@Base 5.0.2
 _ZN22QQmlEngineDebugService14processMessageERK10QByteArray@Base 5.0.2
 _ZN22QQmlEngineDebugService14storeObjectIdsEP7QObject@Base 5.0.2
 _ZN22QQmlEngineDebugService15buildObjectDumpER11QDataStreamP7QObjectbb@Base 5.0.2
 _ZN22QQmlEngineDebugService15buildObjectListER11QDataStreamP11QQmlContextRK5QListI8QPointerI7QObjectEE@Base 5.0.2
 _ZN22QQmlEngineDebugService15buildStatesListEbRK5QListI8QPointerI7QObjectEE@Base 5.0.2
 _ZN22QQmlEngineDebugService15messageReceivedERK10QByteArray@Base 5.0.2
 _ZN22QQmlEngineDebugService15propertyChangedEiiRK13QMetaPropertyRK8QVariant@Base 5.0.2
 _ZN22QQmlEngineDebugService16staticMetaObjectE@Base 5.0.2
 _ZN22QQmlEngineDebugService17setStatesDelegateEP23QQmlDebugStatesDelegate@Base 5.0.2
 _ZN22QQmlEngineDebugService22prepareDeferredObjectsEP7QObject@Base 5.0.2
 _ZN22QQmlEngineDebugService8instanceEv@Base 5.0.2
 _ZN22QQmlEngineDebugService9addEngineEP10QQmlEngine@Base 5.0.2
 _ZN22QQmlEngineDebugService9remEngineEP10QQmlEngine@Base 5.0.2
 _ZN22QQmlEngineDebugServiceC1EP7QObject@Base 5.0.2
 _ZN22QQmlEngineDebugServiceC2EP7QObject@Base 5.0.2
 _ZN22QQmlEngineDebugServiceD0Ev@Base 5.0.2
 _ZN22QQmlEngineDebugServiceD1Ev@Base 5.0.2
 _ZN22QQmlEngineDebugServiceD2Ev@Base 5.0.2
 _ZN22QQmlOpenMetaObjectType14createPropertyERK10QByteArray@Base 5.0.2
 _ZN22QQmlOpenMetaObjectType15propertyCreatedEiR20QMetaPropertyBuilder@Base 5.0.2
 _ZN22QQmlOpenMetaObjectType5clearEv@Base 5.0.2
 _ZN22QQmlOpenMetaObjectTypeC1EPK11QMetaObjectP10QQmlEngine@Base 5.0.2
 _ZN22QQmlOpenMetaObjectTypeC2EPK11QMetaObjectP10QQmlEngine@Base 5.0.2
 _ZN22QQmlOpenMetaObjectTypeD0Ev@Base 5.0.2
 _ZN22QQmlOpenMetaObjectTypeD1Ev@Base 5.0.2
 _ZN22QQmlOpenMetaObjectTypeD2Ev@Base 5.0.2
 _ZN23QQmlAbstractBoundSignal11addToObjectEP7QObject@Base 5.0.2
 _ZN23QQmlAbstractBoundSignal16removeFromObjectEv@Base 5.0.2
 _ZN23QQmlAbstractBoundSignalC1Ev@Base 5.0.2
 _ZN23QQmlAbstractBoundSignalC2Ev@Base 5.0.2
 _ZN23QQmlAbstractBoundSignalD0Ev@Base 5.0.2
 _ZN23QQmlAbstractBoundSignalD1Ev@Base 5.0.2
 _ZN23QQmlAbstractBoundSignalD2Ev@Base 5.0.2
 _ZN23QQmlPropertyValueSourceC1Ev@Base 5.0.2
 _ZN23QQmlPropertyValueSourceC2Ev@Base 5.0.2
 _ZN23QQmlPropertyValueSourceD0Ev@Base 5.0.2
 _ZN23QQmlPropertyValueSourceD1Ev@Base 5.0.2
 _ZN23QQmlPropertyValueSourceD2Ev@Base 5.0.2
 _ZN24QQmlCustomParserPropertyC1ERKS_@Base 5.0.2
 _ZN24QQmlCustomParserPropertyC1Ev@Base 5.0.2
 _ZN24QQmlCustomParserPropertyC2ERKS_@Base 5.0.2
 _ZN24QQmlCustomParserPropertyC2Ev@Base 5.0.2
 _ZN24QQmlCustomParserPropertyD1Ev@Base 5.0.2
 _ZN24QQmlCustomParserPropertyD2Ev@Base 5.0.2
 _ZN24QQmlCustomParserPropertyaSERKS_@Base 5.0.2
 _ZN24QQmlIncubationController11incubateForEi@Base 5.0.2
 _ZN24QQmlIncubationController13incubateWhileEPVbi@Base 5.0.2
 _ZN24QQmlIncubationController28incubatingObjectCountChangedEi@Base 5.0.2
 _ZN24QQmlIncubationControllerC1Ev@Base 5.0.2
 _ZN24QQmlIncubationControllerC2Ev@Base 5.0.2
 _ZN24QQmlIncubationControllerD0Ev@Base 5.0.2
 _ZN24QQmlIncubationControllerD1Ev@Base 5.0.2
 _ZN24QQmlIncubationControllerD2Ev@Base 5.0.2
 _ZN25QQmlBoundSignalExpression17expressionChangedEP24QQmlJavaScriptExpression@Base 5.0.2
 _ZN25QQmlBoundSignalExpression20expressionIdentifierEP24QQmlJavaScriptExpression@Base 5.0.2
 _ZN25QQmlBoundSignalExpression4initEP15QQmlContextDataP7QObject@Base 5.0.2
 _ZN25QQmlBoundSignalExpression8evaluateEPPv@Base 5.0.2
 _ZN25QQmlBoundSignalExpressionC1EP7QObjectiP15QQmlContextDataS1_RK10QByteArraybRK7QStringtt@Base 5.0.2
 _ZN25QQmlBoundSignalExpressionC1EP7QObjectiP15QQmlContextDataS1_RK7QStringbS6_tt@Base 5.0.2
 _ZN25QQmlBoundSignalExpressionC2EP7QObjectiP15QQmlContextDataS1_RK10QByteArraybRK7QStringtt@Base 5.0.2
 _ZN25QQmlBoundSignalExpressionC2EP7QObjectiP15QQmlContextDataS1_RK7QStringbS6_tt@Base 5.0.2
 _ZN25QQmlBoundSignalExpressionD0Ev@Base 5.0.2
 _ZN25QQmlBoundSignalExpressionD1Ev@Base 5.0.2
 _ZN25QQmlBoundSignalExpressionD2Ev@Base 5.0.2
 _ZN26QAbstractDynamicMetaObjectD0Ev@Base 5.0.2
 _ZN26QAbstractDynamicMetaObjectD1Ev@Base 5.0.2
 _ZN26QAbstractDynamicMetaObjectD2Ev@Base 5.0.2
 _ZN26QParallelAnimationGroupJob11updateStateEN21QAbstractAnimationJob5StateES1_@Base 5.0.2
 _ZN26QParallelAnimationGroupJob15applyGroupStateEP21QAbstractAnimationJob@Base 5.0.2
 _ZN26QParallelAnimationGroupJob15updateDirectionEN21QAbstractAnimationJob9DirectionE@Base 5.0.2
 _ZN26QParallelAnimationGroupJob17updateCurrentTimeEi@Base 5.0.2
 _ZN26QParallelAnimationGroupJob29uncontrolledAnimationFinishedEP21QAbstractAnimationJob@Base 5.0.2
 _ZN26QParallelAnimationGroupJobC1Ev@Base 5.0.2
 _ZN26QParallelAnimationGroupJobC2Ev@Base 5.0.2
 _ZN26QParallelAnimationGroupJobD0Ev@Base 5.0.2
 _ZN26QParallelAnimationGroupJobD1Ev@Base 5.0.2
 _ZN26QParallelAnimationGroupJobD2Ev@Base 5.0.2
 _ZN27QAnimationJobChangeListenerD0Ev@Base 5.0.2
 _ZN27QAnimationJobChangeListenerD1Ev@Base 5.0.2
 _ZN27QAnimationJobChangeListenerD2Ev@Base 5.0.2
 _ZN28QQmlPropertyValueInterceptorC1Ev@Base 5.0.2
 _ZN28QQmlPropertyValueInterceptorC2Ev@Base 5.0.2
 _ZN28QQmlPropertyValueInterceptorD0Ev@Base 5.0.2
 _ZN28QQmlPropertyValueInterceptorD1Ev@Base 5.0.2
 _ZN28QQmlPropertyValueInterceptorD2Ev@Base 5.0.2
 _ZN28QSequentialAnimationGroupJob11updateStateEN21QAbstractAnimationJob5StateES1_@Base 5.0.2
 _ZN28QSequentialAnimationGroupJob14rewindForwardsERKNS_14AnimationIndexE@Base 5.0.2
 _ZN28QSequentialAnimationGroupJob15advanceForwardsERKNS_14AnimationIndexE@Base 5.0.2
 _ZN28QSequentialAnimationGroupJob15updateDirectionEN21QAbstractAnimationJob9DirectionE@Base 5.0.2
 _ZN28QSequentialAnimationGroupJob16animationRemovedEP21QAbstractAnimationJobS1_S1_@Base 5.0.2
 _ZN28QSequentialAnimationGroupJob17animationInsertedEP21QAbstractAnimationJob@Base 5.0.2
 _ZN28QSequentialAnimationGroupJob17updateCurrentTimeEi@Base 5.0.2
 _ZN28QSequentialAnimationGroupJob19setCurrentAnimationEP21QAbstractAnimationJobb@Base 5.0.2
 _ZN28QSequentialAnimationGroupJob24activateCurrentAnimationEb@Base 5.0.2
 _ZN28QSequentialAnimationGroupJob29uncontrolledAnimationFinishedEP21QAbstractAnimationJob@Base 5.0.2
 _ZN28QSequentialAnimationGroupJob7restartEv@Base 5.0.2
 _ZN28QSequentialAnimationGroupJobC1Ev@Base 5.0.2
 _ZN28QSequentialAnimationGroupJobC2Ev@Base 5.0.2
 _ZN28QSequentialAnimationGroupJobD0Ev@Base 5.0.2
 _ZN28QSequentialAnimationGroupJobD1Ev@Base 5.0.2
 _ZN28QSequentialAnimationGroupJobD2Ev@Base 5.0.2
 _ZN31QQmlNetworkAccessManagerFactoryD0Ev@Base 5.0.2
 _ZN31QQmlNetworkAccessManagerFactoryD1Ev@Base 5.0.2
 _ZN31QQmlNetworkAccessManagerFactoryD2Ev@Base 5.0.2
 _ZN32QQmlBoundSignalExpressionPointer4takeEP25QQmlBoundSignalExpression@Base 5.0.2
 _ZN32QQmlBoundSignalExpressionPointerC1EP25QQmlBoundSignalExpression@Base 5.0.2
 _ZN32QQmlBoundSignalExpressionPointerC1ERKS_@Base 5.0.2
 _ZN32QQmlBoundSignalExpressionPointerC2EP25QQmlBoundSignalExpression@Base 5.0.2
 _ZN32QQmlBoundSignalExpressionPointerC2ERKS_@Base 5.0.2
 _ZN32QQmlBoundSignalExpressionPointerD1Ev@Base 5.0.2
 _ZN32QQmlBoundSignalExpressionPointerD2Ev@Base 5.0.2
 _ZN32QQmlBoundSignalExpressionPointeraSEP25QQmlBoundSignalExpression@Base 5.0.2
 _ZN32QQmlBoundSignalExpressionPointeraSERKS_@Base 5.0.2
 _ZN7QQmlVME12initDeferredEP7QObject@Base 5.0.2
 _ZN7QQmlVME20instructionJumpTableEv@Base 5.0.2
 _ZN7QQmlVME3runEP15QQmlContextDataP14QQmlScriptData@Base 5.0.2
 _ZN7QQmlVME3runEP5QListI9QQmlErrorERKNS_9InterruptEPPKPv@Base 5.0.2
 _ZN7QQmlVME4initEP15QQmlContextDataP16QQmlCompiledDataiS1_@Base 5.0.2
 _ZN7QQmlVME5blankER12QFiniteStackIP16QQmlParserStatusE@Base 5.0.2
 _ZN7QQmlVME5blankER12QFiniteStackIP19QQmlAbstractBindingE@Base 5.0.2
 _ZN7QQmlVME5resetEv@Base 5.0.2
 _ZN7QQmlVME7executeEP5QListI9QQmlErrorERKNS_9InterruptE@Base 5.0.2
 _ZN7QQmlVME8completeERKNS_9InterruptE@Base 5.0.2
 _ZN8QJSValue11setPropertyERK7QStringRKS_@Base 5.0.2
 _ZN8QJSValue11setPropertyEjRKS_@Base 5.0.2
 _ZN8QJSValue12setPrototypeERKS_@Base 5.0.2
 _ZN8QJSValue14deletePropertyERK7QString@Base 5.0.2
 _ZN8QJSValue16callWithInstanceERKS_RK5QListIS_E@Base 5.0.2
 _ZN8QJSValue17callAsConstructorERK5QListIS_E@Base 5.0.2
 _ZN8QJSValue4callERK5QListIS_E@Base 5.0.2
 _ZN8QJSValueC1E18QScriptPassPointerI15QJSValuePrivateE@Base 5.0.2
 _ZN8QJSValueC1ENS_12SpecialValueE@Base 5.0.2
 _ZN8QJSValueC1EP15QJSValuePrivate@Base 5.0.2
 _ZN8QJSValueC1EPKc@Base 5.0.2
 _ZN8QJSValueC1ERK13QLatin1String@Base 5.0.2
 _ZN8QJSValueC1ERK7QString@Base 5.0.2
 _ZN8QJSValueC1ERKS_@Base 5.0.2
 _ZN8QJSValueC1Eb@Base 5.0.2
 _ZN8QJSValueC1Ed@Base 5.0.2
 _ZN8QJSValueC1Ei@Base 5.0.2
 _ZN8QJSValueC1Ej@Base 5.0.2
 _ZN8QJSValueC2E18QScriptPassPointerI15QJSValuePrivateE@Base 5.0.2
 _ZN8QJSValueC2ENS_12SpecialValueE@Base 5.0.2
 _ZN8QJSValueC2EP15QJSValuePrivate@Base 5.0.2
 _ZN8QJSValueC2EPKc@Base 5.0.2
 _ZN8QJSValueC2ERK13QLatin1String@Base 5.0.2
 _ZN8QJSValueC2ERK7QString@Base 5.0.2
 _ZN8QJSValueC2ERKS_@Base 5.0.2
 _ZN8QJSValueC2Eb@Base 5.0.2
 _ZN8QJSValueC2Ed@Base 5.0.2
 _ZN8QJSValueC2Ei@Base 5.0.2
 _ZN8QJSValueC2Ej@Base 5.0.2
 _ZN8QJSValueD1Ev@Base 5.0.2
 _ZN8QJSValueD2Ev@Base 5.0.2
 _ZN8QJSValueaSERKS_@Base 5.0.2
 _ZN8QQmlData10NotifyList6layoutEP20QQmlNotifierEndpoint@Base 5.0.2
 _ZN8QQmlData10NotifyList6layoutEv@Base 5.0.2
 _ZN8QQmlData13endpointCountEi@Base 5.0.2
 _ZN8QQmlData13markAsDeletedEP7QObject@Base 5.0.2
 _ZN8QQmlData13parentChangedEP24QAbstractDeclarativeDataP7QObjectS3_@Base 5.0.2
 _ZN8QQmlData13parentChangedEP7QObjectS1_@Base 5.0.2
 _ZN8QQmlData13setBindingBitEP7QObjecti@Base 5.0.2
 _ZN8QQmlData13signalEmittedEP24QAbstractDeclarativeDataP7QObjectiPPv@Base 5.0.2
 _ZN8QQmlData15clearBindingBitEi@Base 5.0.2
 _ZN8QQmlData17isSignalConnectedEP24QAbstractDeclarativeDataPK7QObjecti@Base 5.0.2
 _ZN8QQmlData17signalHasEndpointEi@Base 5.0.2
 _ZN8QQmlData19disconnectNotifiersEv@Base 5.0.2
 _ZN8QQmlData20setPendingBindingBitEP7QObjecti@Base 5.0.2
 _ZN8QQmlData20setQueuedForDeletionEP7QObject@Base 5.0.2
 _ZN8QQmlData22clearPendingBindingBitEi@Base 5.0.2
 _ZN8QQmlData23flushPendingBindingImplEi@Base 5.0.2
 _ZN8QQmlData9addNotifyEiP20QQmlNotifierEndpoint@Base 5.0.2
 _ZN8QQmlData9destroyedEP24QAbstractDeclarativeDataP7QObject@Base 5.0.2
 _ZN8QQmlData9destroyedEP7QObject@Base 5.0.2
 _ZN8QQmlData9receiversEP24QAbstractDeclarativeDataPK7QObjecti@Base 5.0.2
 _ZN8QQmlFile11isLocalFileERK4QUrl@Base 5.0.2
 _ZN8QQmlFile11isLocalFileERK7QString@Base 5.0.2
 _ZN8QQmlFile13isSynchronousERK4QUrl@Base 5.0.2
 _ZN8QQmlFile13isSynchronousERK7QString@Base 5.0.2
 _ZN8QQmlFile14bundleFileNameERK4QUrlP10QQmlEngine@Base 5.0.2
 _ZN8QQmlFile14bundleFileNameERK7QStringP10QQmlEngine@Base 5.0.2
 _ZN8QQmlFile15connectFinishedEP7QObjectPKc@Base 5.0.2
 _ZN8QQmlFile15connectFinishedEP7QObjecti@Base 5.0.2
 _ZN8QQmlFile16bundleFileExistsERK4QUrlP10QQmlEngine@Base 5.0.2
 _ZN8QQmlFile16bundleFileExistsERK7QStringP10QQmlEngine@Base 5.0.2
 _ZN8QQmlFile19urlToLocalFileOrQrcERK4QUrl@Base 5.0.2
 _ZN8QQmlFile19urlToLocalFileOrQrcERK7QString@Base 5.0.2
 _ZN8QQmlFile21bundleDirectoryExistsERK4QUrlP10QQmlEngine@Base 5.0.2
 _ZN8QQmlFile21bundleDirectoryExistsERK7QStringP10QQmlEngine@Base 5.0.2
 _ZN8QQmlFile23connectDownloadProgressEP7QObjectPKc@Base 5.0.2
 _ZN8QQmlFile23connectDownloadProgressEP7QObjecti@Base 5.0.2
 _ZN8QQmlFile4loadEP10QQmlEngineRK4QUrl@Base 5.0.2
 _ZN8QQmlFile4loadEP10QQmlEngineRK7QString@Base 5.0.2
 _ZN8QQmlFile5clearEP7QObject@Base 5.0.2
 _ZN8QQmlFile5clearEv@Base 5.0.2
 _ZN8QQmlFile8isBundleERK4QUrl@Base 5.0.2
 _ZN8QQmlFile8isBundleERK7QString@Base 5.0.2
 _ZN8QQmlFileC1EP10QQmlEngineRK4QUrl@Base 5.0.2
 _ZN8QQmlFileC1EP10QQmlEngineRK7QString@Base 5.0.2
 _ZN8QQmlFileC1Ev@Base 5.0.2
 _ZN8QQmlFileC2EP10QQmlEngineRK4QUrl@Base 5.0.2
 _ZN8QQmlFileC2EP10QQmlEngineRK7QString@Base 5.0.2
 _ZN8QQmlFileC2Ev@Base 5.0.2
 _ZN8QQmlFileD1Ev@Base 5.0.2
 _ZN8QQmlFileD2Ev@Base 5.0.2
 _ZN8QQmlInfoC1EP15QQmlInfoPrivate@Base 5.0.2
 _ZN8QQmlInfoC1ERKS_@Base 5.0.2
 _ZN8QQmlInfoC2EP15QQmlInfoPrivate@Base 5.0.2
 _ZN8QQmlInfoC2ERKS_@Base 5.0.2
 _ZN8QQmlInfoD1Ev@Base 5.0.2
 _ZN8QQmlInfoD2Ev@Base 5.0.2
 _ZN8QQmlPool5clearEv@Base 5.0.2
 (optional=templinst)_ZN8QQmlPool7destroyIN10QQmlScript13TypeReferenceEEEvPNS_5ClassE@Base 5.0.2
 (optional=templinst)_ZN8QQmlPool7destroyIN10QQmlScript6Object11DynamicSlotEEEvPNS_5ClassE@Base 5.0.2
 (optional=templinst)_ZN8QQmlPool7destroyIN10QQmlScript6ObjectEEEvPNS_5ClassE@Base 5.0.2
 (optional=templinst)_ZN8QQmlPool7destroyIN12QQmlCompiler14ComponentStatsEEEvPNS_5ClassE@Base 5.0.2
 (optional=templinst)_ZN8QQmlPool7destroyIN17QQmlCompilerTypes18JSBindingReferenceEEEvPNS_5ClassE@Base 5.0.2
 (optional=templinst)_ZN8QQmlPool7destroyIN17QQmlCompilerTypes21ComponentCompileStateEEEvPNS_5ClassE@Base 5.0.2
 (optional=templinst)_ZN8QQmlPool7destroyINS_11StringClassEEEvPNS_5ClassE@Base 5.0.2
 _ZN8QQmlPool7newpageEv@Base 5.0.2
 _ZN8QQmlType21SingletonInstanceInfo12setScriptApiEP10QQmlEngine8QJSValue@Base 5.0.2
 _ZN8QQmlType21SingletonInstanceInfo13setQObjectApiEP10QQmlEngineP7QObject@Base 5.0.2
 _ZN8QQmlType21SingletonInstanceInfo4initEP10QQmlEngine@Base 5.0.2
 _ZN8QQmlType21SingletonInstanceInfo7destroyEP10QQmlEngine@Base 5.0.2
 _ZN8QQmlTypeC1EiRK7QStringRKN11QQmlPrivate12RegisterTypeE@Base 5.0.2
 _ZN8QQmlTypeC1EiRK7QStringRKN11QQmlPrivate21RegisterSingletonTypeE@Base 5.0.2
 _ZN8QQmlTypeC1EiRKN11QQmlPrivate17RegisterInterfaceE@Base 5.0.2
 _ZN8QQmlTypeC2EiRK7QStringRKN11QQmlPrivate12RegisterTypeE@Base 5.0.2
 _ZN8QQmlTypeC2EiRK7QStringRKN11QQmlPrivate21RegisterSingletonTypeE@Base 5.0.2
 _ZN8QQmlTypeC2EiRKN11QQmlPrivate17RegisterInterfaceE@Base 5.0.2
 _ZN8QQmlTypeD1Ev@Base 5.0.2
 _ZN8QQmlTypeD2Ev@Base 5.0.2
 (optional=gccinternal)_ZN9QBitArray8clearBitEi@Base 5.0.2
 _ZN9QJSEngine10newQObjectEP7QObject@Base 5.0.2
 _ZN9QJSEngine11qt_metacallEN11QMetaObject4CallEiPPv@Base 5.0.2
 _ZN9QJSEngine11qt_metacastEPKc@Base 5.0.2
 _ZN9QJSEngine14collectGarbageEv@Base 5.0.2
 _ZN9QJSEngine16staticMetaObjectE@Base 5.0.2
 _ZN9QJSEngine6createEiPKv@Base 5.0.2
 _ZN9QJSEngine8evaluateERK7QStringS2_i@Base 5.0.2
 _ZN9QJSEngine8newArrayEj@Base 5.0.2
 _ZN9QJSEngine9convertV2ERK8QJSValueiPv@Base 5.0.2
 _ZN9QJSEngine9newObjectEv@Base 5.0.2
 _ZN9QJSEngineC1EP7QObject@Base 5.0.2
 _ZN9QJSEngineC1ER16QJSEnginePrivateP7QObject@Base 5.0.2
 _ZN9QJSEngineC1Ev@Base 5.0.2
 _ZN9QJSEngineC2EP7QObject@Base 5.0.2
 _ZN9QJSEngineC2ER16QJSEnginePrivateP7QObject@Base 5.0.2
 _ZN9QJSEngineC2Ev@Base 5.0.2
 _ZN9QJSEngineD0Ev@Base 5.0.2
 _ZN9QJSEngineD1Ev@Base 5.0.2
 _ZN9QJSEngineD2Ev@Base 5.0.2
 _ZN9QQmlError14setDescriptionERK7QString@Base 5.0.2
 _ZN9QQmlError6setUrlERK4QUrl@Base 5.0.2
 _ZN9QQmlError7setLineEi@Base 5.0.2
 _ZN9QQmlError9setColumnEi@Base 5.0.2
 _ZN9QQmlErrorC1ERKS_@Base 5.0.2
 _ZN9QQmlErrorC1Ev@Base 5.0.2
 _ZN9QQmlErrorC2ERKS_@Base 5.0.2
 _ZN9QQmlErrorC2Ev@Base 5.0.2
 _ZN9QQmlErrorD1Ev@Base 5.0.2
 _ZN9QQmlErrorD2Ev@Base 5.0.2
 _ZN9QQmlErroraSERKS_@Base 5.0.2
 _ZN9QQmlTimer10classBeginEv@Base 5.0.2
 _ZN9QQmlTimer10setRunningEb@Base 5.0.2
 _ZN9QQmlTimer11qt_metacallEN11QMetaObject4CallEiPPv@Base 5.0.2
 _ZN9QQmlTimer11qt_metacastEPKc@Base 5.0.2
 _ZN9QQmlTimer11setIntervalEi@Base 5.0.2
 _ZN9QQmlTimer12setRepeatingEb@Base 5.0.2
 _ZN9QQmlTimer13repeatChangedEv@Base 5.0.2
 _ZN9QQmlTimer14runningChangedEv@Base 5.0.2
 _ZN9QQmlTimer15intervalChangedEv@Base 5.0.2
 _ZN9QQmlTimer16staticMetaObjectE@Base 5.0.2
 _ZN9QQmlTimer17componentCompleteEv@Base 5.0.2
 _ZN9QQmlTimer19setTriggeredOnStartEb@Base 5.0.2
 _ZN9QQmlTimer23triggeredOnStartChangedEv@Base 5.0.2
 _ZN9QQmlTimer4stopEv@Base 5.0.2
 _ZN9QQmlTimer5startEv@Base 5.0.2
 _ZN9QQmlTimer6tickedEv@Base 5.0.2
 _ZN9QQmlTimer6updateEv@Base 5.0.2
 _ZN9QQmlTimer7restartEv@Base 5.0.2
 _ZN9QQmlTimer9triggeredEv@Base 5.0.2
 _ZN9QQmlTimerC1EP7QObject@Base 5.0.2
 _ZN9QQmlTimerC2EP7QObject@Base 5.0.2
 _ZN9QQmlTimerD0Ev@Base 5.0.2
 _ZN9QQmlTimerD1Ev@Base 5.0.2
 _ZN9QQmlTimerD2Ev@Base 5.0.2
 _ZN9QV8Engine10ThreadDataC1Ev@Base 5.0.2
 _ZN9QV8Engine10ThreadDataC2Ev@Base 5.0.2
 _ZN9QV8Engine10ThreadDataD1Ev@Base 5.0.2
 _ZN9QV8Engine10ThreadDataD2Ev@Base 5.0.2
 _ZN9QV8Engine10newVariantERK8QVariant@Base 5.0.2
 _ZN9QV8Engine10startTimerERK7QString@Base 5.0.2
 _ZN9QV8Engine10threadDataEv@Base 5.0.2
 _ZN9QV8Engine11fromVariantERK8QVariant@Base 5.0.2
 _ZN9QV8Engine11variantToJSERK8QVariant@Base 5.0.2
 _ZN9QV8Engine12freezeObjectEN2v86HandleINS0_5ValueEEE@Base 5.0.2
 _ZN9QV8Engine12metaTypeToJSEiPKv@Base 5.0.2
 _ZN9QV8Engine12variantValueEN2v86HandleINS0_5ValueEEE@Base 5.0.2
 _ZN9QV8Engine13hasThreadDataEv@Base 5.0.2
 _ZN9QV8Engine13jsonArrayToJSERK10QJsonArray@Base 5.0.2
 _ZN9QV8Engine13jsonValueToJSERK10QJsonValue@Base 5.0.2
 _ZN9QV8Engine13variantFromJSEN2v86HandleINS0_5ValueEEER4QSetINS1_INS0_6ObjectEEEE@Base 5.0.2
 _ZN9QV8Engine14callingContextEv@Base 5.0.2
 _ZN9QV8Engine14getApplicationEN2v85LocalINS0_6StringEEERKNS0_12AccessorInfoE@Base 5.0.2
 _ZN9QV8Engine14getInputMethodEN2v85LocalINS0_6StringEEERKNS0_12AccessorInfoE@Base 5.0.2
 _ZN9QV8Engine14jsonObjectToJSERK11QJsonObject@Base 5.0.2
 _ZN9QV8Engine14metaTypeFromJSEN2v86HandleINS0_5ValueEEEiPv@Base 5.0.2
 _ZN9QV8Engine14qmlModeCompileEPKciRK7QStringt@Base 5.0.2
 _ZN9QV8Engine14qmlModeCompileERK7QStringS2_t@Base 5.0.2
 _ZN9QV8Engine14qtObjectFromJSEN2v86HandleINS0_5ValueEEE@Base 5.0.2
 _ZN9QV8Engine14throwExceptionEN2v86HandleINS0_5ValueEEE@Base 5.0.2
 _ZN9QV8Engine14toBasicVariantEN2v86HandleINS0_5ValueEEE@Base 5.0.2
 _ZN9QV8Engine14toStringStaticEN2v86HandleINS0_5ValueEEE@Base 5.0.2
 _ZN9QV8Engine14toStringStaticEN2v86HandleINS0_6StringEEE@Base 5.0.2
 _ZN9QV8Engine14variantMapToJSERK4QMapI7QString8QVariantE@Base 5.0.2
 _ZN9QV8Engine15jsonArrayFromJSEN2v86HandleINS0_5ValueEEE@Base 5.0.2
 _ZN9QV8Engine15jsonValueFromJSEN2v86HandleINS0_5ValueEEE@Base 5.0.2
 _ZN9QV8Engine15variantListToJSERK5QListI8QVariantE@Base 5.0.2
 _ZN9QV8Engine16initializeGlobalEN2v86HandleINS0_6ObjectEEE@Base 5.0.2
 _ZN9QV8Engine16jsonObjectFromJSEN2v86HandleINS0_5ValueEEE@Base 5.0.2
 _ZN9QV8Engine16setExtensionDataEiPNS_9DeletableE@Base 5.0.2
 _ZN9QV8Engine16variantMapFromJSEN2v86HandleINS0_6ObjectEEER4QSetIS3_E@Base 5.0.2
 _ZN9QV8Engine17registerExtensionEv@Base 5.0.2
 _ZN9QV8Engine17registrationMutexEv@Base 5.0.2
 _ZN9QV8Engine17variantListFromJSEN2v86HandleINS0_5ArrayEEER4QSetINS1_INS0_6ObjectEEEE@Base 5.0.2
 _ZN9QV8Engine18consoleCountHelperERK7QStringtt@Base 5.0.2
 _ZN9QV8Engine18qtDateTimeToJsDateERK9QDateTime@Base 5.0.2
 _ZN9QV8Engine19getOwnPropertyNamesEN2v86HandleINS0_6ObjectEEE@Base 5.0.2
 _ZN9QV8Engine19initQmlGlobalObjectEv@Base 5.0.2
 _ZN9QV8Engine20addRelationshipForGCEP7QObjectN2v810PersistentINS2_5ValueEEE@Base 5.0.2
 _ZN9QV8Engine20addRelationshipForGCEP7QObjectS1_@Base 5.0.2
 _ZN9QV8Engine20findOwnerAndStrengthEP7QObjectPb@Base 5.0.2
 _ZN9QV8Engine20networkAccessManagerEv@Base 5.0.2
 _ZN9QV8Engine20qtDateTimeFromJsDateEd@Base 5.0.2
 _ZN9QV8Engine22convertToNativeQObjectEN2v86HandleINS0_5ValueEEERK10QByteArrayPPv@Base 5.0.2
 _ZN9QV8Engine22ensurePerThreadIsolateEv@Base 5.0.2
 _ZN9QV8Engine2gcEv@Base 5.0.2
 _ZN9QV8Engine8evaluateEN2v86HandleINS0_6ScriptEEERNS0_8TryCatchE@Base 5.0.2
 _ZN9QV8Engine8newArrayEj@Base 5.0.2
 _ZN9QV8Engine9setEngineEP10QQmlEngine@Base 5.0.2
 _ZN9QV8Engine9stopTimerERK7QStringPb@Base 5.0.2
 _ZN9QV8Engine9toVariantEN2v86HandleINS0_5ValueEEEi@Base 5.0.2
 _ZN9QV8EngineC1EP9QJSEngineNS_16ContextOwnershipE@Base 5.0.2
 _ZN9QV8EngineC2EP9QJSEngineNS_16ContextOwnershipE@Base 5.0.2
 _ZN9QV8EngineD0Ev@Base 5.0.2
 _ZN9QV8EngineD1Ev@Base 5.0.2
 _ZN9QV8EngineD2Ev@Base 5.0.2
 _ZNK10QQmlBundle4findEPK5QChari@Base 5.0.2
 _ZNK10QQmlBundle4findERK7QString@Base 5.0.2
 _ZNK10QQmlBundle4linkEPKNS_9FileEntryERK7QString@Base 5.0.2
 _ZNK10QQmlBundle5filesEv@Base 5.0.2
 _ZNK10QQmlBundle9FileEntry10isFileNameERK7QString@Base 5.0.2
 _ZNK10QQmlBundle9FileEntry8contentsEv@Base 5.0.2
 _ZNK10QQmlBundle9FileEntry8fileNameEv@Base 5.0.2
 _ZNK10QQmlBundle9FileEntry8fileSizeEv@Base 5.0.2
 _ZNK10QQmlEngine10metaObjectEv@Base 5.0.2
 _ZNK10QQmlEngine11rootContextEv@Base 5.0.2
 _ZNK10QQmlEngine13imageProviderERK7QString@Base 5.0.2
 _ZNK10QQmlEngine14importPathListEv@Base 5.0.2
 _ZNK10QQmlEngine14pluginPathListEv@Base 5.0.2
 _ZNK10QQmlEngine18offlineStoragePathEv@Base 5.0.2
 _ZNK10QQmlEngine20incubationControllerEv@Base 5.0.2
 _ZNK10QQmlEngine20networkAccessManagerEv@Base 5.0.2
 _ZNK10QQmlEngine27networkAccessManagerFactoryEv@Base 5.0.2
 _ZNK10QQmlEngine29outputWarningsToStandardErrorEv@Base 5.0.2
 _ZNK10QQmlEngine7baseUrlEv@Base 5.0.2
 _ZNK10QQmlScript6Parser12preparseDataEv@Base 5.0.2
 _ZNK10QQmlScript6Parser15referencedTypesEv@Base 5.0.2
 _ZNK10QQmlScript6Parser4treeEv@Base 5.0.2
 _ZNK10QQmlScript6Parser6errorsEv@Base 5.0.2
 _ZNK10QQmlScript6Parser7importsEv@Base 5.0.2
 _ZNK10QQmlScript7Variant12asStringListEv@Base 5.0.2
 _ZNK10QQmlScript7Variant12isStringListEv@Base 5.0.2
 _ZNK10QQmlScript7Variant4typeEv@Base 5.0.2
 _ZNK10QQmlScript7Variant5asASTEv@Base 5.0.2
 _ZNK10QQmlScript7Variant8asNumberEv@Base 5.0.2
 _ZNK10QQmlScript7Variant8asScriptEv@Base 5.0.2
 _ZNK10QQmlScript7Variant8asStringEv@Base 5.0.2
 _ZNK10QQmlScript7Variant9asBooleanEv@Base 5.0.2
 _ZNK11QQmlBinding10expressionEv@Base 5.0.2
 _ZNK11QQmlBinding13evaluateFlagsEv@Base 5.0.2
 _ZNK11QQmlBinding13propertyIndexEv@Base 5.0.2
 _ZNK11QQmlBinding6objectEv@Base 5.0.2
 _ZNK11QQmlBinding8propertyEv@Base 5.0.2
 _ZNK11QQmlContext10metaObjectEv@Base 5.0.2
 _ZNK11QQmlContext13contextObjectEv@Base 5.0.2
 _ZNK11QQmlContext13nameForObjectEP7QObject@Base 5.0.2
 _ZNK11QQmlContext13parentContextEv@Base 5.0.2
 _ZNK11QQmlContext15contextPropertyERK7QString@Base 5.0.2
 _ZNK11QQmlContext6engineEv@Base 5.0.2
 _ZNK11QQmlContext7baseUrlEv@Base 5.0.2
 _ZNK11QQmlContext7isValidEv@Base 5.0.2
 _ZNK11QQmlImports11resolveTypeEP19QQmlImportNamespaceRK16QHashedStringRefPP8QQmlTypeP7QStringPiSA_@Base 5.0.2
 _ZNK11QQmlImports11resolveTypeERK16QHashedStringRefPP8QQmlTypeP7QStringPiS8_PP19QQmlImportNamespaceP5QListI9QQmlErrorE@Base 5.0.2
 _ZNK11QQmlImports13populateCacheEP17QQmlTypeNameCache@Base 5.0.2
 _ZNK11QQmlImports15resolvedScriptsEv@Base 5.0.2
 _ZNK11QQmlImports7baseUrlEv@Base 5.0.2
 _ZNK12QQmlDataBlob10isCompleteEv@Base 5.0.2
 _ZNK12QQmlDataBlob14finalUrlStringEv@Base 5.0.2
 _ZNK12QQmlDataBlob17isCompleteOrErrorEv@Base 5.0.2
 _ZNK12QQmlDataBlob3urlEv@Base 5.0.2
 _ZNK12QQmlDataBlob4typeEv@Base 5.0.2
 _ZNK12QQmlDataBlob6errorsEv@Base 5.0.2
 _ZNK12QQmlDataBlob6isNullEv@Base 5.0.2
 _ZNK12QQmlDataBlob6statusEv@Base 5.0.2
 _ZNK12QQmlDataBlob7isErrorEv@Base 5.0.2
 _ZNK12QQmlDataBlob8finalUrlEv@Base 5.0.2
 _ZNK12QQmlDataBlob8progressEv@Base 5.0.2
 _ZNK12QQmlDataBlob9isLoadingEv@Base 5.0.2
 _ZNK12QQmlDataBlob9isWaitingEv@Base 5.0.2
 _ZNK12QQmlProperty10isPropertyEv@Base 5.0.2
 _ZNK12QQmlProperty10isWritableEv@Base 5.0.2
 _ZNK12QQmlProperty12isDesignableEv@Base 5.0.2
 _ZNK12QQmlProperty12isResettableEv@Base 5.0.2
 _ZNK12QQmlProperty12propertyTypeEv@Base 5.0.2
 _ZNK12QQmlProperty15hasNotifySignalEv@Base 5.0.2
 _ZNK12QQmlProperty16isSignalPropertyEv@Base 5.0.2
 _ZNK12QQmlProperty16propertyTypeNameEv@Base 5.0.2
 _ZNK12QQmlProperty17needsNotifySignalEv@Base 5.0.2
 _ZNK12QQmlProperty19connectNotifySignalEP7QObjectPKc@Base 5.0.2
 _ZNK12QQmlProperty19connectNotifySignalEP7QObjecti@Base 5.0.2
 _ZNK12QQmlProperty20propertyTypeCategoryEv@Base 5.0.2
 _ZNK12QQmlProperty4nameEv@Base 5.0.2
 _ZNK12QQmlProperty4readEv@Base 5.0.2
 _ZNK12QQmlProperty4typeEv@Base 5.0.2
 _ZNK12QQmlProperty5indexEv@Base 5.0.2
 _ZNK12QQmlProperty5resetEv@Base 5.0.2
 _ZNK12QQmlProperty5writeERK8QVariant@Base 5.0.2
 _ZNK12QQmlProperty6methodEv@Base 5.0.2
 _ZNK12QQmlProperty6objectEv@Base 5.0.2
 _ZNK12QQmlProperty7isValidEv@Base 5.0.2
 _ZNK12QQmlProperty8propertyEv@Base 5.0.2
 _ZNK12QQmlPropertyeqERKS_@Base 5.0.2
 _ZNK13QQmlComponent10metaObjectEv@Base 5.0.2
 _ZNK13QQmlComponent11errorStringEv@Base 5.0.2
 _ZNK13QQmlComponent15creationContextEv@Base 5.0.2
 _ZNK13QQmlComponent3urlEv@Base 5.0.2
 _ZNK13QQmlComponent6errorsEv@Base 5.0.2
 _ZNK13QQmlComponent6isNullEv@Base 5.0.2
 _ZNK13QQmlComponent6statusEv@Base 5.0.2
 _ZNK13QQmlComponent7isErrorEv@Base 5.0.2
 _ZNK13QQmlComponent7isReadyEv@Base 5.0.2
 _ZNK13QQmlComponent8progressEv@Base 5.0.2
 _ZNK13QQmlComponent9isLoadingEv@Base 5.0.2
 _ZNK13QQmlIncubator14incubationModeEv@Base 5.0.2
 _ZNK13QQmlIncubator6errorsEv@Base 5.0.2
 _ZNK13QQmlIncubator6isNullEv@Base 5.0.2
 _ZNK13QQmlIncubator6objectEv@Base 5.0.2
 _ZNK13QQmlIncubator6statusEv@Base 5.0.2
 _ZNK13QQmlIncubator7isErrorEv@Base 5.0.2
 _ZNK13QQmlIncubator7isReadyEv@Base 5.0.2
 _ZNK13QQmlIncubator9isLoadingEv@Base 5.0.2
 _ZNK13QQmlValueType10metaObjectEv@Base 5.0.2
 _ZNK14QQmlExpression10expressionEv@Base 5.0.2
 _ZNK14QQmlExpression10lineNumberEv@Base 5.0.2
 _ZNK14QQmlExpression10metaObjectEv@Base 5.0.2
 _ZNK14QQmlExpression10sourceFileEv@Base 5.0.2
 _ZNK14QQmlExpression11scopeObjectEv@Base 5.0.2
 _ZNK14QQmlExpression12columnNumberEv@Base 5.0.2
 _ZNK14QQmlExpression20notifyOnValueChangedEv@Base 5.0.2
 _ZNK14QQmlExpression5errorEv@Base 5.0.2
 _ZNK14QQmlExpression6engineEv@Base 5.0.2
 _ZNK14QQmlExpression7contextEv@Base 5.0.2
 _ZNK14QQmlExpression8hasErrorEv@Base 5.0.2
 _ZNK14QQmlMetaObject13propertyCacheEP17QQmlEnginePrivate@Base 5.0.2
 _ZNK15QQmlBoundSignal10expressionEv@Base 5.0.2
 _ZNK15QQmlBoundSignal5indexEv@Base 5.0.2
 _ZNK15QQmlContextData12findObjectIdEPK7QObject@Base 5.0.2
 _ZNK15QQmlDebugServer10metaObjectEv@Base 5.0.2
 _ZNK15QQmlDebugServer12blockingModeEv@Base 5.0.2
 _ZNK15QQmlDebugServer12serviceNamesEv@Base 5.0.2
 _ZNK15QQmlDebugServer18hasDebuggingClientEv@Base 5.0.2
 _ZNK15QQmlDebugServer8servicesEv@Base 5.0.2
 _ZNK15QQmlPropertyMap10metaObjectEv@Base 5.0.2
 _ZNK15QQmlPropertyMap4keysEv@Base 5.0.2
 _ZNK15QQmlPropertyMap4sizeEv@Base 5.0.2
 _ZNK15QQmlPropertyMap5countEv@Base 5.0.2
 _ZNK15QQmlPropertyMap5valueERK7QString@Base 5.0.2
 _ZNK15QQmlPropertyMap7isEmptyEv@Base 5.0.2
 _ZNK15QQmlPropertyMap8containsERK7QString@Base 5.0.2
 _ZNK15QQmlPropertyMapixERK7QString@Base 5.0.2
 _ZNK15QQuickListModel10metaObjectEv@Base 5.0.2
 _ZNK15QQuickListModel3getEi@Base 5.0.2
 _ZNK15QQuickListModel4dataERK11QModelIndexi@Base 5.0.2
 _ZNK15QQuickListModel4dataEii@Base 5.0.2
 _ZNK15QQuickListModel5countEv@Base 5.0.2
 _ZNK15QQuickListModel5indexEiiRK11QModelIndex@Base 5.0.2
 _ZNK15QQuickListModel6engineEv@Base 5.0.2
 _ZNK15QQuickListModel8rowCountERK11QModelIndex@Base 5.0.2
 _ZNK15QQuickListModel9roleNamesEv@Base 5.0.2
 _ZNK16QJSValueIterator4nameEv@Base 5.0.2
 _ZNK16QJSValueIterator5valueEv@Base 5.0.2
 _ZNK16QJSValueIterator7hasNextEv@Base 5.0.2
 _ZNK16QQmlCustomParser11resolveTypeERK7QString@Base 5.0.2
 _ZNK16QQmlCustomParser12evaluateEnumERK10QByteArrayPb@Base 5.0.2
 _ZNK16QQmlDebugService10metaObjectEv@Base 5.0.2
 _ZNK16QQmlDebugService4nameEv@Base 5.0.2
 _ZNK16QQmlDebugService5stateEv@Base 5.0.2
 _ZNK16QQmlDebugService7versionEv@Base 5.0.2
 _ZNK16QQmlScriptString13isNullLiteralEv@Base 5.0.2
 _ZNK16QQmlScriptString13numberLiteralEPb@Base 5.0.2
 _ZNK16QQmlScriptString13stringLiteralEv@Base 5.0.2
 _ZNK16QQmlScriptString14booleanLiteralEPb@Base 5.0.2
 _ZNK16QQmlScriptString18isUndefinedLiteralEv@Base 5.0.2
 _ZNK16QQmlScriptString7isEmptyEv@Base 5.0.2
 _ZNK17QQmlEnginePrivate12isTypeLoadedERK4QUrl@Base 5.0.2
 _ZNK17QQmlEnginePrivate12typeCategoryEi@Base 5.0.2
 _ZNK17QQmlEnginePrivate14isScriptLoadedERK4QUrl@Base 5.0.2
 _ZNK17QQmlEnginePrivate17metaObjectForTypeEi@Base 5.0.2
 _ZNK17QQmlEnginePrivate20rawMetaObjectForTypeEi@Base 5.0.2
 _ZNK17QQmlEnginePrivate23getNetworkAccessManagerEv@Base 5.0.2
 _ZNK17QQmlEnginePrivate26createNetworkAccessManagerEP7QObject@Base 5.0.2
 _ZNK17QQmlEnginePrivate6isListEi@Base 5.0.2
 _ZNK17QQmlEnginePrivate8listTypeEi@Base 5.0.2
 _ZNK17QQmlEnginePrivate9toQObjectERK8QVariantPb@Base 5.0.2
 _ZNK17QQmlListReference10isReadableEv@Base 5.0.2
 _ZNK17QQmlListReference13isManipulableEv@Base 5.0.2
 _ZNK17QQmlListReference15listElementTypeEv@Base 5.0.2
 _ZNK17QQmlListReference2atEi@Base 5.0.2
 _ZNK17QQmlListReference5canAtEv@Base 5.0.2
 _ZNK17QQmlListReference5clearEv@Base 5.0.2
 _ZNK17QQmlListReference5countEv@Base 5.0.2
 _ZNK17QQmlListReference6appendEP7QObject@Base 5.0.2
 _ZNK17QQmlListReference6objectEv@Base 5.0.2
 _ZNK17QQmlListReference7isValidEv@Base 5.0.2
 _ZNK17QQmlListReference8canClearEv@Base 5.0.2
 _ZNK17QQmlListReference8canCountEv@Base 5.0.2
 _ZNK17QQmlListReference9canAppendEv@Base 5.0.2
 _ZNK17QQmlPropertyCache10metaObjectEv@Base 5.0.2
 _ZNK17QQmlPropertyCache12findPropertyEN11QStringHashI5QPairIiP16QQmlPropertyDataEE13ConstIteratorEP7QObjectP15QQmlContextData@Base 5.0.2
 _ZNK17QQmlPropertyCache12findPropertyEN11QStringHashI5QPairIiP16QQmlPropertyDataEE13ConstIteratorEPK17QQmlVMEMetaObjectP15QQmlContextData@Base 5.0.2
 _ZNK17QQmlPropertyCache13propertyNamesEv@Base 5.0.2
 _ZNK17QQmlPropertyCache14ensureResolvedEP16QQmlPropertyData@Base 5.0.2
 _ZNK17QQmlPropertyCache15defaultPropertyEv@Base 5.0.2
 _ZNK17QQmlPropertyCache18firstCppMetaObjectEv@Base 5.0.2
 _ZNK17QQmlPropertyCache19defaultPropertyNameEv@Base 5.0.2
 _ZNK17QQmlPropertyCache20signalParameterNamesEi@Base 5.0.2
 _ZNK17QQmlPropertyCache24methodIndexToSignalIndexEi@Base 5.0.2
 _ZNK17QQmlPropertyCache6methodEi@Base 5.0.2
 _ZNK17QQmlPropertyCache6parentEv@Base 5.0.2
 _ZNK17QQmlPropertyCache6signalEiPPS_@Base 5.0.2
 _ZNK17QQmlPropertyCache7resolveEP16QQmlPropertyData@Base 5.0.2
 _ZNK17QQmlPropertyCache8propertyEi@Base 5.0.2
 _ZNK17QQmlPropertyCache9classNameEv@Base 5.0.2
 _ZNK17QQmlRectValueType10metaObjectEv@Base 5.0.2
 _ZNK17QQmlRectValueType1xEv@Base 5.0.2
 _ZNK17QQmlRectValueType1yEv@Base 5.0.2
 _ZNK17QQmlRectValueType5widthEv@Base 5.0.2
 _ZNK17QQmlRectValueType6heightEv@Base 5.0.2
 _ZNK17QQmlRectValueType8toStringEv@Base 5.0.2
 _ZNK17QQmlSizeValueType10metaObjectEv@Base 5.0.2
 _ZNK17QQmlSizeValueType5widthEv@Base 5.0.2
 _ZNK17QQmlSizeValueType6heightEv@Base 5.0.2
 _ZNK17QQmlSizeValueType8toStringEv@Base 5.0.2
 _ZNK17QQmlVMEMetaObject11aliasTargetEiPP7QObjectPiS3_@Base 5.0.2
 _ZNK17QQmlVMEMetaObject26getQObjectGuardForPropertyEi@Base 5.0.2
 _ZNK18QPauseAnimationJob8durationEv@Base 5.0.2
 _ZNK18QQmlAnimationTimer10metaObjectEv@Base 5.0.2
 _ZNK18QQmlOpenMetaObject4nameEi@Base 5.0.2
 _ZNK18QQmlOpenMetaObject4typeEv@Base 5.0.2
 _ZNK18QQmlOpenMetaObject5countEv@Base 5.0.2
 _ZNK18QQmlOpenMetaObject5valueERK10QByteArray@Base 5.0.2
 _ZNK18QQmlOpenMetaObject5valueEi@Base 5.0.2
 _ZNK18QQmlOpenMetaObject6objectEv@Base 5.0.2
 _ZNK18QQmlOpenMetaObject6parentEv@Base 5.0.2
 _ZNK18QQmlOpenMetaObject8hasValueEi@Base 5.0.2
 _ZNK18QQmlPointValueType10metaObjectEv@Base 5.0.2
 _ZNK18QQmlPointValueType1xEv@Base 5.0.2
 _ZNK18QQmlPointValueType1yEv@Base 5.0.2
 _ZNK18QQmlPointValueType8toStringEv@Base 5.0.2
 _ZNK18QQmlRectFValueType10metaObjectEv@Base 5.0.2
 _ZNK18QQmlRectFValueType1xEv@Base 5.0.2
 _ZNK18QQmlRectFValueType1yEv@Base 5.0.2
 _ZNK18QQmlRectFValueType5widthEv@Base 5.0.2
 _ZNK18QQmlRectFValueType6heightEv@Base 5.0.2
 _ZNK18QQmlRectFValueType8toStringEv@Base 5.0.2
 _ZNK18QQmlSizeFValueType10metaObjectEv@Base 5.0.2
 _ZNK18QQmlSizeFValueType5widthEv@Base 5.0.2
 _ZNK18QQmlSizeFValueType6heightEv@Base 5.0.2
 _ZNK18QQmlSizeFValueType8toStringEv@Base 5.0.2
 _ZNK19QQmlEasingValueType10metaObjectEv@Base 5.0.2
 _ZNK19QQmlEasingValueType11bezierCurveEv@Base 5.0.2
 _ZNK19QQmlEasingValueType4typeEv@Base 5.0.2
 _ZNK19QQmlEasingValueType6periodEv@Base 5.0.2
 _ZNK19QQmlEasingValueType8toStringEv@Base 5.0.2
 _ZNK19QQmlEasingValueType9amplitudeEv@Base 5.0.2
 _ZNK19QQmlEasingValueType9overshootEv@Base 5.0.2
 _ZNK19QQmlExtensionPlugin10metaObjectEv@Base 5.0.2
 _ZNK19QQmlPointFValueType10metaObjectEv@Base 5.0.2
 _ZNK19QQmlPointFValueType1xEv@Base 5.0.2
 _ZNK19QQmlPointFValueType1yEv@Base 5.0.2
 _ZNK19QQmlPointFValueType8toStringEv@Base 5.0.2
 _ZNK19QQmlPropertyPrivate11isValueTypeEv@Base 5.0.2
 _ZNK19QQmlPropertyPrivate11signalIndexEv@Base 5.0.2
 _ZNK19QQmlPropertyPrivate12propertyTypeEv@Base 5.0.2
 _ZNK19QQmlPropertyPrivate20propertyTypeCategoryEv@Base 5.0.2
 _ZNK19QQmlPropertyPrivate4typeEv@Base 5.0.2
 _ZNK19QV8ValueTypeWrapper11isValueTypeEN2v86HandleINS0_6ObjectEEE@Base 5.0.2
 _ZNK20QQmlCustomParserNode10propertiesEv@Base 5.0.2
 _ZNK20QQmlCustomParserNode4nameEv@Base 5.0.2
 _ZNK20QQmlCustomParserNode8locationEv@Base 5.0.2
 _ZNK20QQmlInspectorService10metaObjectEv@Base 5.0.2
 _ZNK21QAbstractAnimationJob13totalDurationEv@Base 5.0.2
 _ZNK21QAbstractAnimationJob19userControlDisabledEv@Base 5.0.2
 _ZNK22QQmlAbstractExpression7contextEv@Base 5.0.2
 _ZNK22QQmlAbstractExpression7isValidEv@Base 5.0.2
 _ZNK22QQmlEngineDebugService10metaObjectEv@Base 5.0.2
 _ZNK22QQmlEngineDebugService13valueContentsERK8QVariant@Base 5.0.2
 _ZNK22QQmlOpenMetaObjectType10metaObjectEv@Base 5.0.2
 _ZNK22QQmlOpenMetaObjectType12propertyNameEi@Base 5.0.2
 _ZNK22QQmlOpenMetaObjectType12signalOffsetEv@Base 5.0.2
 _ZNK22QQmlOpenMetaObjectType13propertyCountEv@Base 5.0.2
 _ZNK22QQmlOpenMetaObjectType14propertyOffsetEv@Base 5.0.2
 _ZNK24QQmlCustomParserProperty14assignedValuesEv@Base 5.0.2
 _ZNK24QQmlCustomParserProperty4nameEv@Base 5.0.2
 _ZNK24QQmlCustomParserProperty6isListEv@Base 5.0.2
 _ZNK24QQmlCustomParserProperty8locationEv@Base 5.0.2
 _ZNK24QQmlIncubationController21incubatingObjectCountEv@Base 5.0.2
 _ZNK24QQmlIncubationController6engineEv@Base 5.0.2
 _ZNK25QQmlBoundSignalExpression10expressionEv@Base 5.0.2
 _ZNK26QParallelAnimationGroupJob20shouldAnimationStartEP21QAbstractAnimationJobb@Base 5.0.2
 _ZNK26QParallelAnimationGroupJob8durationEv@Base 5.0.2
 _ZNK28QSequentialAnimationGroupJob19indexForCurrentTimeEv@Base 5.0.2
 _ZNK28QSequentialAnimationGroupJob28animationActualTotalDurationEP21QAbstractAnimationJob@Base 5.0.2
 _ZNK28QSequentialAnimationGroupJob5atEndEv@Base 5.0.2
 _ZNK28QSequentialAnimationGroupJob8durationEv@Base 5.0.2
 _ZNK8QJSValue10isCallableEv@Base 5.0.2
 _ZNK8QJSValue10toDateTimeEv@Base 5.0.2
 _ZNK8QJSValue11hasPropertyERK7QString@Base 5.0.2
 _ZNK8QJSValue11isUndefinedEv@Base 5.0.2
 _ZNK8QJSValue14hasOwnPropertyERK7QString@Base 5.0.2
 _ZNK8QJSValue14strictlyEqualsERKS_@Base 5.0.2
 _ZNK8QJSValue5toIntEv@Base 5.0.2
 _ZNK8QJSValue6engineEv@Base 5.0.2
 _ZNK8QJSValue6equalsERKS_@Base 5.0.2
 _ZNK8QJSValue6isBoolEv@Base 5.0.2
 _ZNK8QJSValue6isDateEv@Base 5.0.2
 _ZNK8QJSValue6isNullEv@Base 5.0.2
 _ZNK8QJSValue6toBoolEv@Base 5.0.2
 _ZNK8QJSValue6toUIntEv@Base 5.0.2
 _ZNK8QJSValue7isArrayEv@Base 5.0.2
 _ZNK8QJSValue7isErrorEv@Base 5.0.2
 _ZNK8QJSValue8isNumberEv@Base 5.0.2
 _ZNK8QJSValue8isObjectEv@Base 5.0.2
 _ZNK8QJSValue8isRegExpEv@Base 5.0.2
 _ZNK8QJSValue8isStringEv@Base 5.0.2
 _ZNK8QJSValue8propertyERK7QString@Base 5.0.2
 _ZNK8QJSValue8propertyEj@Base 5.0.2
 _ZNK8QJSValue8toNumberEv@Base 5.0.2
 _ZNK8QJSValue8toStringEv@Base 5.0.2
 _ZNK8QJSValue9isQObjectEv@Base 5.0.2
 _ZNK8QJSValue9isVariantEv@Base 5.0.2
 _ZNK8QJSValue9prototypeEv@Base 5.0.2
 _ZNK8QJSValue9toQObjectEv@Base 5.0.2
 _ZNK8QJSValue9toVariantEv@Base 5.0.2
 _ZNK8QQmlData18attachedPropertiesEv@Base 5.0.2
 _ZNK8QQmlFile13dataByteArrayEv@Base 5.0.2
 _ZNK8QQmlFile3urlEv@Base 5.0.2
 _ZNK8QQmlFile4dataEv@Base 5.0.2
 _ZNK8QQmlFile4sizeEv@Base 5.0.2
 _ZNK8QQmlFile5errorEv@Base 5.0.2
 _ZNK8QQmlFile6isNullEv@Base 5.0.2
 _ZNK8QQmlFile6statusEv@Base 5.0.2
 _ZNK8QQmlFile7isErrorEv@Base 5.0.2
 _ZNK8QQmlFile7isReadyEv@Base 5.0.2
 _ZNK8QQmlFile8metaDataERK7QString@Base 5.0.2
 _ZNK8QQmlFile9isLoadingEv@Base 5.0.2
 _ZNK8QQmlType10createSizeEv@Base 5.0.2
 _ZNK8QQmlType10metaObjectEv@Base 5.0.2
 _ZNK8QQmlType11elementNameEv@Base 5.0.2
 _ZNK8QQmlType11isCreatableEv@Base 5.0.2
 _ZNK8QQmlType11isInterfaceEv@Base 5.0.2
 _ZNK8QQmlType11isSingletonEv@Base 5.0.2
 _ZNK8QQmlType11qListTypeIdEv@Base 5.0.2
 _ZNK8QQmlType11qmlTypeNameEv@Base 5.0.2
 _ZNK8QQmlType12customParserEv@Base 5.0.2
 _ZNK8QQmlType12interfaceIIdEv@Base 5.0.2
 _ZNK8QQmlType12majorVersionEv@Base 5.0.2
 _ZNK8QQmlType12minorVersionEv@Base 5.0.2
 _ZNK8QQmlType14baseMetaObjectEv@Base 5.0.2
 _ZNK8QQmlType14createFunctionEv@Base 5.0.2
 _ZNK8QQmlType14isExtendedTypeEv@Base 5.0.2
 _ZNK8QQmlType16noCreationReasonEv@Base 5.0.2
 _ZNK8QQmlType16parserStatusCastEv@Base 5.0.2
 _ZNK8QQmlType18availableInVersionERK16QHashedStringRefii@Base 5.0.2
 _ZNK8QQmlType18availableInVersionEii@Base 5.0.2
 _ZNK8QQmlType18metaObjectRevisionEv@Base 5.0.2
 _ZNK8QQmlType20attachedPropertiesIdEv@Base 5.0.2
 _ZNK8QQmlType21SingletonInstanceInfo10qobjectApiEP10QQmlEngine@Base 5.0.2
 _ZNK8QQmlType21SingletonInstanceInfo9scriptApiEP10QQmlEngine@Base 5.0.2
 _ZNK8QQmlType21singletonInstanceInfoEv@Base 5.0.2
 _ZNK8QQmlType22attachedPropertiesTypeEv@Base 5.0.2
 _ZNK8QQmlType23propertyValueSourceCastEv@Base 5.0.2
 _ZNK8QQmlType26attachedPropertiesFunctionEv@Base 5.0.2
 _ZNK8QQmlType28containsRevisionedAttributesEv@Base 5.0.2
 _ZNK8QQmlType28propertyValueInterceptorCastEv@Base 5.0.2
 _ZNK8QQmlType5indexEv@Base 5.0.2
 (subst)_ZNK8QQmlType6createEPP7QObjectPPv{size_t}@Base 5.0.2
 _ZNK8QQmlType6createEv@Base 5.0.2
 _ZNK8QQmlType6moduleEv@Base 5.0.2
 _ZNK8QQmlType6typeIdEv@Base 5.0.2
 _ZNK8QQmlType8typeNameEv@Base 5.0.2
 _ZNK8QQmlType9enumValueERK15QHashedV8StringPb@Base 5.0.2
 _ZNK8QQmlType9enumValueERK16QHashedStringRefPb@Base 5.0.2
 _ZNK8QQmlType9enumValueERK17QHashedCStringRefPb@Base 5.0.2
 _ZNK8QQmlType9superTypeEv@Base 5.0.2
 _ZNK9QJSEngine10metaObjectEv@Base 5.0.2
 _ZNK9QJSEngine12globalObjectEv@Base 5.0.2
 _ZNK9QQmlError11descriptionEv@Base 5.0.2
 _ZNK9QQmlError3urlEv@Base 5.0.2
 _ZNK9QQmlError4lineEv@Base 5.0.2
 _ZNK9QQmlError6columnEv@Base 5.0.2
 _ZNK9QQmlError7isValidEv@Base 5.0.2
 _ZNK9QQmlError8toStringEv@Base 5.0.2
 _ZNK9QQmlTimer10metaObjectEv@Base 5.0.2
 _ZNK9QQmlTimer11isRepeatingEv@Base 5.0.2
 _ZNK9QQmlTimer16triggeredOnStartEv@Base 5.0.2
 _ZNK9QQmlTimer8intervalEv@Base 5.0.2
 _ZNK9QQmlTimer9isRunningEv@Base 5.0.2
 _ZNK9QV8Engine12illegalNamesEv@Base 5.0.2
 _ZNK9QV8Engine23scriptValueFromInternalEN2v86HandleINS0_5ValueEEE@Base 5.0.2
 (optional=templinst|arch=!amd64)_ZSt4swapIN8QVariant7PrivateEEvRT_S3_@Base 5.0.2
 _ZTI10QQmlBundle@Base 5.0.2
 _ZTI10QQmlEngine@Base 5.0.2
 _ZTI11QMetaObject@Base 5.0.2
 _ZTI11QQmlBinding@Base 5.0.2
 _ZTI11QQmlCleanup@Base 5.0.2
 _ZTI11QQmlContext@Base 5.0.2
 _ZTI12QQmlDataBlob@Base 5.0.2
 _ZTI13QQmlComponent@Base 5.0.2
 _ZTI13QQmlIncubator@Base 5.0.2
 _ZTI13QQmlValueType@Base 5.0.2
 _ZTI14QQmlExpression@Base 5.0.2
 _ZTI15QQmlBoundSignal@Base 5.0.2
 _ZTI15QQmlDebugServer@Base 5.0.2
 _ZTI15QQmlGuiProvider@Base 5.0.2
 _ZTI15QQmlPropertyMap@Base 5.0.2
 _ZTI15QQuickListModel@Base 5.0.2
 _ZTI16QQmlCustomParser@Base 5.0.2
 _ZTI16QQmlDebugService@Base 5.0.2
 _ZTI16QQmlParserStatus@Base 5.0.2
 _ZTI17QQmlColorProvider@Base 5.0.2
 _ZTI17QQmlEnginePrivate@Base 5.0.2
 _ZTI17QQmlPropertyCache@Base 5.0.2
 _ZTI17QQmlRectValueType@Base 5.0.2
 _ZTI17QQmlSizeValueType@Base 5.0.2
 _ZTI17QQmlVMEMetaObject@Base 5.0.2
 _ZTI18QAnimationGroupJob@Base 5.0.2
 _ZTI18QPauseAnimationJob@Base 5.0.2
 _ZTI18QQmlAnimationTimer@Base 5.0.2
 _ZTI18QQmlOpenMetaObject@Base 5.0.2
 _ZTI18QQmlPointValueType@Base 5.0.2
 _ZTI18QQmlRectFValueType@Base 5.0.2
 _ZTI18QQmlSizeFValueType@Base 5.0.2
 _ZTI19QQmlAbstractBinding@Base 5.0.2
 _ZTI19QQmlEasingValueType@Base 5.0.2
 _ZTI19QQmlExtensionPlugin@Base 5.0.2
 _ZTI19QQmlPointFValueType@Base 5.0.2
 _ZTI19QQmlProfilerService@Base 5.0.2
 _ZTI19QQmlPropertyPrivate@Base 5.0.2
 _ZTI20QQmlComponentPrivate@Base 5.0.2
 _ZTI20QQmlInspectorService@Base 5.0.2
 _ZTI21QAbstractAnimationJob@Base 5.0.2
 _ZTI21QQmlImageProviderBase@Base 5.0.2
 _ZTI21QQmlValueTypeProvider@Base 5.0.2
 _ZTI22QDynamicMetaObjectData@Base 5.0.2
 _ZTI22QQmlAbstractExpression@Base 5.0.2
 _ZTI22QQmlEngineDebugService@Base 5.0.2
 _ZTI22QQmlExtensionInterface@Base 5.0.2
 _ZTI22QQmlOpenMetaObjectType@Base 5.0.2
 _ZTI23QQmlAbstractBoundSignal@Base 5.0.2
 _ZTI23QQmlPropertyValueSource@Base 5.0.2
 _ZTI24QQmlIncubationController@Base 5.0.2
 _ZTI25QQmlBoundSignalExpression@Base 5.0.2
 _ZTI26QAbstractDynamicMetaObject@Base 5.0.2
 _ZTI26QParallelAnimationGroupJob@Base 5.0.2
 _ZTI27QAnimationJobChangeListener@Base 5.0.2
 _ZTI27QQmlTypesExtensionInterface@Base 5.0.2
 _ZTI28QQmlPropertyValueInterceptor@Base 5.0.2
 _ZTI28QSequentialAnimationGroupJob@Base 5.0.2
 _ZTI31QQmlNetworkAccessManagerFactory@Base 5.0.2
 _ZTI9QJSEngine@Base 5.0.2
 _ZTI9QQmlTimer@Base 5.0.2
 _ZTI9QV8Engine@Base 5.0.2
 _ZTIN14QQmlTypeLoader4BlobE@Base 5.0.2
 _ZTIN15QQmlContextData12ContextGuardE@Base 5.0.2
 _ZTIN17QQmlEnginePrivate15PropertyCaptureE@Base 5.0.2
 _ZTIN17QQmlEnginePrivate18ScarceResourceDataE@Base 5.0.2
 _ZTIN17QQmlEnginePrivate9DeletableE@Base 5.0.2
 _ZTIN8QQmlPool3PODE@Base 5.0.2
 _ZTIN8QQmlPool5ClassE@Base 5.0.2
 _ZTIN9QV8Engine9DeletableE@Base 5.0.2
 _ZTIZN17QQmlEnginePrivate20deleteInEngineThreadI17QQmlPropertyCacheEEvPT_E1I@Base 5.0.2
 _ZTS10QQmlBundle@Base 5.0.2
 _ZTS10QQmlEngine@Base 5.0.2
 _ZTS11QMetaObject@Base 5.0.2
 _ZTS11QQmlBinding@Base 5.0.2
 _ZTS11QQmlCleanup@Base 5.0.2
 _ZTS11QQmlContext@Base 5.0.2
 _ZTS12QQmlDataBlob@Base 5.0.2
 _ZTS13QQmlComponent@Base 5.0.2
 _ZTS13QQmlIncubator@Base 5.0.2
 _ZTS13QQmlValueType@Base 5.0.2
 _ZTS14QQmlExpression@Base 5.0.2
 _ZTS15QQmlBoundSignal@Base 5.0.2
 _ZTS15QQmlDebugServer@Base 5.0.2
 _ZTS15QQmlGuiProvider@Base 5.0.2
 _ZTS15QQmlPropertyMap@Base 5.0.2
 _ZTS15QQuickListModel@Base 5.0.2
 _ZTS16QQmlCustomParser@Base 5.0.2
 _ZTS16QQmlDebugService@Base 5.0.2
 _ZTS16QQmlParserStatus@Base 5.0.2
 _ZTS17QQmlColorProvider@Base 5.0.2
 _ZTS17QQmlEnginePrivate@Base 5.0.2
 _ZTS17QQmlPropertyCache@Base 5.0.2
 _ZTS17QQmlRectValueType@Base 5.0.2
 _ZTS17QQmlSizeValueType@Base 5.0.2
 _ZTS17QQmlVMEMetaObject@Base 5.0.2
 _ZTS18QAnimationGroupJob@Base 5.0.2
 _ZTS18QPauseAnimationJob@Base 5.0.2
 _ZTS18QQmlAnimationTimer@Base 5.0.2
 _ZTS18QQmlOpenMetaObject@Base 5.0.2
 _ZTS18QQmlPointValueType@Base 5.0.2
 _ZTS18QQmlRectFValueType@Base 5.0.2
 _ZTS18QQmlSizeFValueType@Base 5.0.2
 _ZTS19QQmlAbstractBinding@Base 5.0.2
 _ZTS19QQmlEasingValueType@Base 5.0.2
 _ZTS19QQmlExtensionPlugin@Base 5.0.2
 _ZTS19QQmlPointFValueType@Base 5.0.2
 _ZTS19QQmlProfilerService@Base 5.0.2
 _ZTS19QQmlPropertyPrivate@Base 5.0.2
 _ZTS20QQmlComponentPrivate@Base 5.0.2
 _ZTS20QQmlInspectorService@Base 5.0.2
 _ZTS21QAbstractAnimationJob@Base 5.0.2
 _ZTS21QQmlImageProviderBase@Base 5.0.2
 _ZTS21QQmlValueTypeProvider@Base 5.0.2
 _ZTS22QDynamicMetaObjectData@Base 5.0.2
 _ZTS22QQmlAbstractExpression@Base 5.0.2
 _ZTS22QQmlEngineDebugService@Base 5.0.2
 _ZTS22QQmlExtensionInterface@Base 5.0.2
 _ZTS22QQmlOpenMetaObjectType@Base 5.0.2
 _ZTS23QQmlAbstractBoundSignal@Base 5.0.2
 _ZTS23QQmlPropertyValueSource@Base 5.0.2
 _ZTS24QQmlIncubationController@Base 5.0.2
 _ZTS25QQmlBoundSignalExpression@Base 5.0.2
 _ZTS26QAbstractDynamicMetaObject@Base 5.0.2
 _ZTS26QParallelAnimationGroupJob@Base 5.0.2
 _ZTS27QAnimationJobChangeListener@Base 5.0.2
 _ZTS27QQmlTypesExtensionInterface@Base 5.0.2
 _ZTS28QQmlPropertyValueInterceptor@Base 5.0.2
 _ZTS28QSequentialAnimationGroupJob@Base 5.0.2
 _ZTS31QQmlNetworkAccessManagerFactory@Base 5.0.2
 _ZTS9QJSEngine@Base 5.0.2
 _ZTS9QQmlTimer@Base 5.0.2
 _ZTS9QV8Engine@Base 5.0.2
 _ZTSN14QQmlTypeLoader4BlobE@Base 5.0.2
 _ZTSN15QQmlContextData12ContextGuardE@Base 5.0.2
 _ZTSN17QQmlEnginePrivate15PropertyCaptureE@Base 5.0.2
 _ZTSN17QQmlEnginePrivate18ScarceResourceDataE@Base 5.0.2
 _ZTSN17QQmlEnginePrivate9DeletableE@Base 5.0.2
 _ZTSN8QQmlPool3PODE@Base 5.0.2
 _ZTSN8QQmlPool5ClassE@Base 5.0.2
 _ZTSN9QV8Engine9DeletableE@Base 5.0.2
 _ZTSZN17QQmlEnginePrivate20deleteInEngineThreadI17QQmlPropertyCacheEEvPT_E1I@Base 5.0.2
 _ZTV10QQmlEngine@Base 5.0.2
 _ZTV11QQmlBinding@Base 5.0.2
 _ZTV11QQmlCleanup@Base 5.0.2
 _ZTV11QQmlContext@Base 5.0.2
 _ZTV12QQmlDataBlob@Base 5.0.2
 _ZTV13QQmlComponent@Base 5.0.2
 _ZTV13QQmlIncubator@Base 5.0.2
 _ZTV13QQmlValueType@Base 5.0.2
 _ZTV14QQmlExpression@Base 5.0.2
 _ZTV15QQmlBoundSignal@Base 5.0.2
 _ZTV15QQmlDebugServer@Base 5.0.2
 _ZTV15QQmlGuiProvider@Base 5.0.2
 _ZTV15QQmlPropertyMap@Base 5.0.2
 _ZTV15QQuickListModel@Base 5.0.2
 _ZTV16QQmlCustomParser@Base 5.0.2
 _ZTV16QQmlDebugService@Base 5.0.2
 _ZTV16QQmlParserStatus@Base 5.0.2
 _ZTV17QQmlColorProvider@Base 5.0.2
 _ZTV17QQmlEnginePrivate@Base 5.0.2
 _ZTV17QQmlPropertyCache@Base 5.0.2
 _ZTV17QQmlRectValueType@Base 5.0.2
 _ZTV17QQmlSizeValueType@Base 5.0.2
 _ZTV17QQmlVMEMetaObject@Base 5.0.2
 _ZTV18QAnimationGroupJob@Base 5.0.2
 _ZTV18QPauseAnimationJob@Base 5.0.2
 _ZTV18QQmlAnimationTimer@Base 5.0.2
 _ZTV18QQmlOpenMetaObject@Base 5.0.2
 _ZTV18QQmlPointValueType@Base 5.0.2
 _ZTV18QQmlRectFValueType@Base 5.0.2
 _ZTV18QQmlSizeFValueType@Base 5.0.2
 _ZTV19QQmlEasingValueType@Base 5.0.2
 _ZTV19QQmlExtensionPlugin@Base 5.0.2
 _ZTV19QQmlPointFValueType@Base 5.0.2
 _ZTV19QQmlProfilerService@Base 5.0.2
 _ZTV19QQmlPropertyPrivate@Base 5.0.2
 _ZTV20QQmlComponentPrivate@Base 5.0.2
 _ZTV20QQmlInspectorService@Base 5.0.2
 _ZTV21QAbstractAnimationJob@Base 5.0.2
 _ZTV21QQmlImageProviderBase@Base 5.0.2
 _ZTV21QQmlValueTypeProvider@Base 5.0.2
 _ZTV22QDynamicMetaObjectData@Base 5.0.2
 _ZTV22QQmlAbstractExpression@Base 5.0.2
 _ZTV22QQmlEngineDebugService@Base 5.0.2
 _ZTV22QQmlExtensionInterface@Base 5.0.2
 _ZTV22QQmlOpenMetaObjectType@Base 5.0.2
 _ZTV23QQmlAbstractBoundSignal@Base 5.0.2
 _ZTV23QQmlPropertyValueSource@Base 5.0.2
 _ZTV24QQmlIncubationController@Base 5.0.2
 _ZTV25QQmlBoundSignalExpression@Base 5.0.2
 _ZTV26QAbstractDynamicMetaObject@Base 5.0.2
 _ZTV26QParallelAnimationGroupJob@Base 5.0.2
 _ZTV27QAnimationJobChangeListener@Base 5.0.2
 _ZTV27QQmlTypesExtensionInterface@Base 5.0.2
 _ZTV28QQmlPropertyValueInterceptor@Base 5.0.2
 _ZTV28QSequentialAnimationGroupJob@Base 5.0.2
 _ZTV31QQmlNetworkAccessManagerFactory@Base 5.0.2
 _ZTV9QJSEngine@Base 5.0.2
 _ZTV9QQmlTimer@Base 5.0.2
 _ZTV9QV8Engine@Base 5.0.2
 _ZTVN14QQmlTypeLoader4BlobE@Base 5.0.2
 _ZTVN15QQmlContextData12ContextGuardE@Base 5.0.2
 _ZTVN17QQmlEnginePrivate15PropertyCaptureE@Base 5.0.2
 _ZTVN17QQmlEnginePrivate9DeletableE@Base 5.0.2
 _ZTVN9QV8Engine9DeletableE@Base 5.0.2
 _ZTVZN17QQmlEnginePrivate20deleteInEngineThreadI17QQmlPropertyCacheEEvPT_E1I@Base 5.0.2
 _ZZN8QQmlData4initEvE11initialized@Base 5.0.2
 _Zls6QDebugRK9QQmlError@Base 5.0.2
 _ZlsR11QDataStreamRKN22QQmlEngineDebugService14QQmlObjectDataE@Base 5.0.2
 _ZlsR11QDataStreamRKN22QQmlEngineDebugService18QQmlObjectPropertyE@Base 5.0.2
 _ZrsR11QDataStreamRN22QQmlEngineDebugService14QQmlObjectDataE@Base 5.0.2
 _ZrsR11QDataStreamRN22QQmlEngineDebugService18QQmlObjectPropertyE@Base 5.0.2
 (c++)"non-virtual thunk to QQmlBoundSignalExpression::~QQmlBoundSignalExpression()@Base" 5.0.2
 (c++|subst)"non-virtual thunk to QQmlComponentPrivate::typeDataProgress(QQmlTypeData*, {c++:qreal})@Base" 5.0.2
 (c++)"non-virtual thunk to QQmlComponentPrivate::typeDataReady(QQmlTypeData*)@Base" 5.0.2
 (c++)"non-virtual thunk to QQmlComponentPrivate::~QQmlComponentPrivate()@Base" 5.0.2
 (c++)"non-virtual thunk to QQmlExtensionPlugin::initializeEngine(QQmlEngine*, char const*)@Base" 5.0.2
 (c++)"non-virtual thunk to QQmlExtensionPlugin::~QQmlExtensionPlugin()@Base" 5.0.2
 (c++)"non-virtual thunk to QQmlOpenMetaObjectType::clear()@Base" 5.0.2
 (c++)"non-virtual thunk to QQmlOpenMetaObjectType::~QQmlOpenMetaObjectType()@Base" 5.0.2
 (c++)"non-virtual thunk to QQmlPropertyCache::clear()@Base" 5.0.2
 (c++)"non-virtual thunk to QQmlPropertyCache::~QQmlPropertyCache()@Base" 5.0.2
 (c++)"non-virtual thunk to QQmlTimer::classBegin()@Base" 5.0.2
 (c++)"non-virtual thunk to QQmlTimer::componentComplete()@Base" 5.0.2
 (c++)"non-virtual thunk to QQmlTimer::~QQmlTimer()@Base" 5.0.2
